ccopy_reg
_reconstructor
p0
(cutil
Counter
p1
c__builtin__
dict
p2
(dp3
((((I-4
I-4
I-4
I-4
I-4
I-4
I-4
I-4
I-4
I-4
I-4
I-4
I-4
I-4
I-4
I-4
I-4
I-4
I-4
tp4
(I-4
I-4
I-4
I-4
I-4
I-2
I-2
I-2
I-4
I1
I-4
I-2
I-2
I-2
I-4
I-4
I-4
I-4
I-4
tp5
(I-4
I-4
I-4
I-4
I-4
I-2
I-2
I-2
I-4
I-4
I-4
I-2
I-2
I-2
I-4
I-4
I-4
I-4
I-4
tp6
(I-4
I-4
I-4
I-4
I-4
I-2
I-2
I-2
I-2
I-2
I-2
I-2
I-2
I-2
I-4
I-4
I-4
I-4
I-4
tp7
(I-4
I-4
I-4
I-4
I-4
I-2
I-2
I-2
I-2
I-2
I-2
I0
I-2
I-2
I-4
I-4
I-4
I-4
I-4
tp8
(I-4
I-4
I-4
I-4
I-4
I-2
I-2
I-2
I-2
I-2
I-2
I-2
I-2
I-2
I-4
I-4
I-4
I-4
I-4
tp9
(I-4
I-4
I-4
I-4
I-4
I-2
I-2
I-2
I-2
I-2
I-2
I-2
I-2
I-2
I-4
I-4
I-4
I-4
I-4
tp10
(I-4
I-4
I-4
I-4
I-4
I-2
I-2
I-2
I-2
I-2
I-2
I-2
I-2
I-2
I-4
I-4
I-4
I-4
I-4
tp11
(I-4
I-4
I-4
I-4
I-4
I-2
I-2
I-2
I-2
I-2
I-2
I-2
I-2
I-2
I-4
I-4
I-4
I-4
I-4
tp12
(I-4
I-4
I-4
I-4
I-4
I-2
I-2
I-2
I-2
I-2
I-2
I-2
I-2
I-2
I-4
I-4
I-4
I-4
I-4
tp13
(I-4
I-4
I-4
I-4
I-4
I-2
I-2
I-2
I-2
I-2
I-2
I-2
I-2
I-2
I-4
I-4
I-4
I-4
I-4
tp14
(I-4
I-4
I-4
I-4
I-4
I-2
I-2
I-2
I-2
I-2
I-2
I-2
I-2
I-2
I-4
I-4
I-4
I-4
I-4
tp15
(I-4
I-4
I-4
I-4
I-4
I-2
I-2
I-2
I-2
I-2
I-2
I-2
I-2
I-2
I-4
I-4
I-4
I-4
I-4
tp16
(I-4
I-4
I-4
I-4
I-4
I-4
I-4
I-4
I-4
I-4
I-4
I-4
I-4
I-4
I-4
I-4
I-4
I-4
I-4
tp17
tp18
(I4
I11
tp19
I14
I19
tp20
S's'
p21
tp22
I0
s((((I-4
I-4
I-4
I-4
I-4
I-4
I-4
I-4
I-4
I-4
I-4
I-4
I-4
I-4
I-4
I-4
I-4
I-4
I-4
tp23
(I-4
I-4
I-4
I-4
I-4
I-2
I-2
I-2
I-4
I1
I-4
I-2
I-2
I-2
I-4
I-4
I-4
I-4
I-4
tp24
(I-4
I-4
I-4
I-4
I-4
I-2
I-2
I-2
I-4
I-4
I-4
I-2
I-2
I-2
I-4
I-4
I-4
I-4
I-4
tp25
(I-4
I-4
I-2
I-4
I-4
I-2
I-2
I-2
I-2
I-2
I-2
I-2
I-2
I-2
I-4
I-4
I-4
I-4
I-4
tp26
(I-4
I-2
I-4
I-4
I-4
I-2
I-2
I-2
I-2
I-2
I-2
I-2
I-2
I-2
I-4
I-4
I-4
I-4
I-4
tp27
(I-4
I-2
I-4
I-4
I-4
I-2
I-2
I-2
I-2
I-2
I-2
I-2
I-2
I-2
I-4
I-4
I-4
I-4
I-4
tp28
(I-4
I-4
I-4
I-4
I-4
I-2
I-2
I-2
I-2
I-2
I-2
I-2
I-2
I-2
I-4
I-4
I-4
I-4
I-4
tp29
(I-4
I-4
I-4
I-4
I-4
I-2
I-2
I-2
I-2
I-2
I-2
I-2
I-2
I-2
I-4
I-4
I-4
I-4
I-4
tp30
(I-4
I-4
I-4
I-4
I-4
I-2
I-2
I-2
I-2
I-2
I-2
I-2
I-2
I-2
I-4
I-4
I-4
I-4
I-4
tp31
(I-4
I-4
I-4
I-4
I-4
I-2
I-2
I-2
I-2
I0
I-2
I-2
I-2
I-2
I-4
I-4
I-4
I-4
I-4
tp32
(I-4
I-4
I-4
I-4
I-4
I-2
I-2
I-2
I-2
I-2
I-2
I-2
I-2
I-2
I-4
I-4
I-4
I-4
I-4
tp33
(I-4
I-4
I-4
I-4
I-4
I-2
I-2
I-2
I-2
I-2
I-2
I-2
I-2
I-2
I-4
I-4
I-4
I-4
I-4
tp34
(I-4
I-4
I-4
I-4
I-4
I-2
I-2
I-2
I-2
I-2
I-2
I-2
I-2
I-2
I-4
I-4
I-4
I-4
I-4
tp35
(I-4
I-4
I-4
I-4
I-4
I-4
I-4
I-4
I-4
I-4
I-4
I-4
I-4
I-4
I-4
I-4
I-4
I-4
I-4
tp36
tp37
(I9
I9
tp38
I14
I19
tp39
S'e'
p40
tp41
I0
s((((I-4
I-4
I-4
I-4
I-4
I-4
I-4
I-4
I-4
I-4
I-4
I-4
I-4
I-4
I-4
I-4
I-4
I-4
I-4
tp42
(I-4
I-4
I-4
I-4
I-4
I-2
I-2
I-2
I-4
I1
I-4
I-2
I-2
I-2
I-4
I-4
I-4
I-4
I-4
tp43
(I-4
I-4
I-4
I-4
I-4
I-2
I-2
I-2
I-4
I-4
I-4
I-2
I-2
I-2
I-4
I-4
I-4
I-4
I-4
tp44
(I-4
I-4
I-4
I-4
I-4
I-2
I-2
I-2
I-2
I-2
I-2
I-2
I-2
I-2
I-4
I-4
I-4
I-4
I-4
tp45
(I-4
I-4
I-4
I-4
I-4
I-2
I-2
I-2
I-2
I-2
I-2
I-2
I-2
I-2
I-4
I-4
I-4
I-4
I-4
tp46
(I-4
I-4
I-4
I-4
I-4
I-2
I-2
I-2
I-2
I-2
I-2
I-2
I-2
I-2
I-4
I-4
I-4
I-4
I-4
tp47
(I-4
I-4
I-4
I-4
I-4
I-2
I-2
I-2
I-2
I-2
I-2
I-2
I-2
I-2
I-4
I-4
I-4
I-4
I-4
tp48
(I-4
I-4
I-4
I-4
I-4
I-2
I-2
I-2
I-2
I-2
I-2
I-2
I-2
I-2
I-4
I-4
I-4
I-4
I-4
tp49
(I-4
I-4
I-4
I-4
I-4
I-2
I-2
I-2
I-2
I-2
I-2
I-2
I-2
I-2
I-4
I-4
I-4
I-4
I-4
tp50
(I-4
I-4
I-4
I-4
I-4
I-2
I-2
I-2
I-2
I-2
I-2
I-2
I-2
I-2
I-4
I-4
I-4
I-4
I-4
tp51
(I-4
I-4
I-4
I-4
I-4
I-2
I-2
I-2
I-2
I-2
I-2
I-2
I-2
I-2
I-4
I-4
I-4
I-4
I-4
tp52
(I-4
I-4
I-4
I-4
I-4
I-2
I-2
I-2
I-2
I-2
I-2
I0
I-2
I-2
I-4
I-4
I-4
I-4
I-4
tp53
(I-4
I-4
I-4
I-4
I-4
I-2
I-2
I-2
I-2
I-2
I-2
I-2
I-2
I-2
I-4
I-4
I-4
I-4
I-4
tp54
(I-4
I-4
I-4
I-4
I-4
I-4
I-4
I-4
I-4
I-4
I-4
I-4
I-4
I-4
I-4
I-4
I-4
I-4
I-4
tp55
tp56
(I11
I11
tp57
I14
I19
tp58
S'w'
p59
tp60
I0
s((((I-4
I-4
I-4
I-4
I-4
I-4
I-4
I-4
I-4
I-4
I-4
I-4
I-4
I-4
I-4
I-4
I-4
I-4
I-4
tp61
(I-4
I-4
I-4
I-4
I-4
I-2
I-2
I-2
I-4
I1
I-4
I-2
I-2
I-2
I-4
I-4
I-4
I-4
I-4
tp62
(I-4
I-4
I-4
I-4
I-4
I-2
I-2
I-2
I-4
I-4
I-4
I-2
I-2
I-2
I-4
I-4
I-4
I-4
I-4
tp63
(I-4
I-4
I-4
I-4
I-4
I-2
I-2
I-2
I-2
I-2
I-2
I-2
I-2
I-2
I-4
I-4
I-4
I-4
I-4
tp64
(I-4
I-4
I-4
I-4
I-4
I-2
I-2
I-2
I-2
I-2
I-2
I-2
I-2
I-2
I-4
I-4
I-4
I-4
I-4
tp65
(I-4
I-4
I-4
I-4
I-4
I-2
I-2
I-2
I-2
I-2
I-2
I-2
I-2
I-2
I-4
I-4
I-4
I-4
I-4
tp66
(I-4
I-4
I-4
I-4
I-4
I-2
I-2
I-2
I-2
I-2
I-2
I-2
I-2
I-2
I-4
I-4
I-4
I-4
I-4
tp67
(I-4
I-4
I-4
I-4
I-4
I-2
I-2
I-2
I-2
I-2
I-2
I-2
I-2
I-2
I-4
I-4
I-4
I-4
I-4
tp68
(I-4
I-4
I-4
I-4
I-4
I-2
I-2
I-2
I-2
I-2
I-2
I-2
I-2
I0
I-4
I-4
I-4
I-4
I-4
tp69
(I-4
I-4
I-4
I-4
I-4
I-2
I-2
I-2
I-2
I-2
I-2
I-2
I-2
I-2
I-4
I-4
I-4
I-4
I-4
tp70
(I-4
I-4
I-4
I-4
I-4
I-2
I-2
I-2
I-2
I-2
I-2
I-2
I-2
I-2
I-4
I-4
I-4
I-4
I-4
tp71
(I-4
I-4
I-4
I-4
I-4
I-2
I-2
I-2
I-2
I-2
I-2
I-2
I-2
I-2
I-4
I-4
I-4
I-4
I-4
tp72
(I-4
I-4
I-4
I-4
I-4
I-2
I-2
I-2
I-2
I-2
I-2
I-2
I-2
I-2
I-4
I-4
I-4
I-4
I-4
tp73
(I-4
I-4
I-4
I-4
I-4
I-4
I-4
I-4
I-4
I-4
I-4
I-4
I-4
I-4
I-4
I-4
I-4
I-4
I-4
tp74
tp75
(I8
I13
tp76
I14
I19
tp77
S's'
p78
tp79
F0.0009626211825448999
s((((I-4
I-4
I-4
I-4
I-4
I-4
I-4
I-4
I-4
I-4
I-4
I-4
I-4
I-4
I-4
I-4
I-4
I-4
I-4
tp80
(I-4
I-4
I-4
I-4
I-4
I-2
I-2
I-2
I-4
I1
I-4
I-2
I-2
I-2
I-4
I-4
I-4
I-4
I-4
tp81
(I-4
I-4
I-4
I-4
I-4
I-2
I-2
I-2
I-4
I-4
I-4
I-2
I-2
I-2
I-4
I-4
I-4
I-4
I-4
tp82
(I-4
I-4
I-2
I-4
I-4
I-2
I-2
I-2
I-2
I-2
I-2
I-2
I-2
I-2
I-4
I-4
I-4
I-4
I-4
tp83
(I-4
I-2
I-4
I-4
I-4
I-2
I-2
I-2
I-2
I-2
I-2
I-2
I-2
I-2
I-4
I-4
I-4
I-4
I-4
tp84
(I-4
I-4
I-4
I-4
I-4
I-2
I-2
I-2
I-2
I-2
I-2
I-2
I-2
I-2
I-4
I-4
I-4
I-4
I-4
tp85
(I-4
I-4
I-4
I-4
I-4
I-2
I-2
I-2
I-2
I-2
I-2
I-2
I-2
I-2
I-4
I-4
I-4
I-4
I-4
tp86
(I-4
I-4
I-4
I-4
I-4
I-2
I-2
I-2
I-2
I-2
I-2
I-2
I-2
I-2
I-4
I-4
I-4
I-4
I-4
tp87
(I-4
I-4
I-4
I-4
I-4
I-2
I-2
I-2
I-2
I-2
I-2
I0
I-2
I-2
I-4
I-4
I-4
I-4
I-4
tp88
(I-4
I-4
I-4
I-4
I-4
I-2
I-2
I-2
I-2
I-2
I-2
I-2
I-2
I-2
I-4
I-4
I-4
I-4
I-4
tp89
(I-4
I-4
I-4
I-4
I-4
I-2
I-2
I-2
I-2
I-2
I-2
I-2
I-2
I-2
I-4
I-4
I-4
I-4
I-4
tp90
(I-4
I-4
I-4
I-4
I-4
I-2
I-2
I-2
I-2
I-2
I-2
I-2
I-2
I-2
I-4
I-4
I-4
I-4
I-4
tp91
(I-4
I-4
I-4
I-4
I-4
I-2
I-2
I-2
I-2
I-2
I-2
I-2
I-2
I-2
I-4
I-4
I-4
I-4
I-4
tp92
(I-4
I-4
I-4
I-4
I-4
I-4
I-4
I-4
I-4
I-4
I-4
I-4
I-4
I-4
I-4
I-4
I-4
I-4
I-4
tp93
tp94
(I8
I11
tp95
I14
I19
tp96
g21
tp97
I0
s(g58
g40
tp98
F0.0
s((((I-4
I-4
I-4
I-4
I-4
I-4
I-4
I-4
I-4
I-4
I-4
I-4
I-4
I-4
I-4
I-4
I-4
I-4
I-4
tp99
(I-4
I-4
I-4
I-4
I-4
I-2
I-2
I-2
I-4
I1
I-4
I-2
I-2
I-2
I-4
I-4
I-4
I-4
I-4
tp100
(I-4
I-4
I-4
I-4
I-4
I-2
I-2
I-2
I-4
I-4
I-4
I-2
I-2
I-2
I-4
I-4
I-4
I-4
I-4
tp101
(I-4
I-4
I-4
I-4
I-4
I-2
I-2
I-2
I-2
I-2
I-2
I-2
I-2
I-2
I-4
I-4
I-4
I-4
I-4
tp102
(I-4
I-4
I-4
I-4
I-4
I-2
I-2
I-2
I-2
I-2
I-2
I-2
I-2
I-2
I-4
I-4
I-4
I-4
I-4
tp103
(I-4
I-4
I-4
I-4
I-4
I-2
I-2
I-2
I-2
I-2
I-2
I0
I-2
I-2
I-4
I-4
I-4
I-4
I-4
tp104
(I-4
I-4
I-4
I-4
I-4
I-2
I-2
I-2
I-2
I-2
I-2
I-2
I-2
I-2
I-4
I-4
I-4
I-4
I-4
tp105
(I-4
I-4
I-4
I-4
I-4
I-2
I-2
I-2
I-2
I-2
I-2
I-2
I-2
I-2
I-4
I-4
I-4
I-4
I-4
tp106
(I-4
I-4
I-4
I-4
I-4
I-2
I-2
I-2
I-2
I-2
I-2
I-2
I-2
I-2
I-4
I-4
I-4
I-4
I-4
tp107
(I-4
I-4
I-4
I-4
I-4
I-2
I-2
I-2
I-2
I-2
I-2
I-2
I-2
I-2
I-4
I-4
I-4
I-4
I-4
tp108
(I-4
I-4
I-4
I-4
I-4
I-2
I-2
I-2
I-2
I-2
I-2
I-2
I-2
I-2
I-4
I-4
I-4
I-4
I-4
tp109
(I-4
I-4
I-4
I-4
I-4
I-2
I-2
I-2
I-2
I-2
I-2
I-2
I-2
I-2
I-4
I-4
I-4
I-4
I-4
tp110
(I-4
I-4
I-4
I-4
I-4
I-2
I-2
I-2
I-2
I-2
I-2
I-2
I-2
I-2
I-4
I-4
I-4
I-4
I-4
tp111
(I-4
I-4
I-4
I-4
I-4
I-4
I-4
I-4
I-4
I-4
I-4
I-4
I-4
I-4
I-4
I-4
I-4
I-4
I-4
tp112
tp113
(I5
I11
tp114
I14
I19
tp115
S'n'
p116
tp117
F1.09609375
s((((I-2
I-4
I-4
I-4
I-4
I-4
I-4
I-4
I-4
I-4
I-4
I-4
I-4
I-4
I-4
I-4
I-4
I-4
I-4
tp118
(I-2
I-2
I-4
I-4
I-4
I-2
I-2
I-2
I-4
I1
I-4
I-2
I-2
I-2
I-4
I-4
I-4
I-4
I-4
tp119
(I-2
I-2
I-4
I-4
I-4
I-2
I-2
I-2
I-4
I-4
I-4
I-2
I-2
I-2
I-4
I-4
I-4
I-4
I-2
tp120
(I-2
I-2
I-2
I-4
I-4
I-2
I-2
I-2
I-2
I-2
I-2
I-2
I-2
I-2
I-4
I-4
I-4
I-4
I-2
tp121
(I-2
I-2
I-4
I-4
I-4
I-2
I-2
I-2
I-2
I-2
I-2
I-2
I-2
I-2
I-4
I-4
I-4
I-2
I-2
tp122
(I-2
I-2
I-4
I-4
I-4
I-2
I-2
I-2
I-2
I-2
I-2
I-2
I-2
I-2
I-4
I-4
I-4
I-2
I-2
tp123
(I-2
I-4
I-4
I-4
I-4
I-2
I-2
I-2
I-2
I-2
I-2
I-2
I-2
I-2
I-4
I-4
I-4
I-4
I-2
tp124
(I-2
I-4
I-4
I-4
I-4
I-2
I-2
I-2
I-2
I-2
I-2
I-2
I-2
I-2
I-4
I-4
I-4
I-4
I-2
tp125
(I-2
I-4
I-4
I-4
I-4
I-2
I-2
I-2
I-2
I-2
I-2
I-2
I-2
I-2
I-4
I-4
I-4
I-4
I-4
tp126
(I-2
I-4
I-4
I-4
I-4
I-2
I-2
I-2
I-2
I-2
I-2
I-2
I-2
I-2
I-4
I-4
I-4
I-4
I-4
tp127
(I-2
I-4
I-4
I-4
I-4
I-2
I-2
I-2
I-2
I-2
I-2
I-2
I-2
I-2
I-4
I-4
I-4
I-4
I-4
tp128
(I-2
I-4
I-4
I-4
I-4
I-2
I-2
I-2
I-2
I-2
I-2
I-2
I-2
I-2
I-4
I-4
I-4
I-4
I-4
tp129
(I-2
I-4
I-4
I-4
I-4
I-2
I-2
I-2
I-2
I-2
I0
I-2
I-2
I-2
I-4
I-4
I-4
I-4
I-4
tp130
(I-2
I-4
I-4
I-4
I-4
I-4
I-4
I-4
I-4
I-4
I-4
I-4
I-4
I-4
I-4
I-4
I-4
I-4
I-4
tp131
tp132
(I12
I10
tp133
I14
I19
tp134
S'n'
p135
tp136
F1.0100568636361325
s((((I-4
I-4
I-4
I-4
I-4
I-4
I-4
I-4
I-4
I-4
I-4
I-4
I-4
I-4
I-4
I-4
I-4
I-4
I-4
tp137
(I-4
I-4
I-4
I-4
I-4
I-2
I-2
I-2
I-4
I1
I-4
I-2
I-2
I-2
I-4
I-4
I-4
I-4
I-4
tp138
(I-4
I-4
I-4
I-4
I-4
I-2
I-2
I-2
I-4
I-4
I-4
I-2
I-2
I-2
I-4
I-4
I-4
I-4
I-4
tp139
(I-4
I-4
I-4
I-4
I-4
I-2
I-2
I-2
I-2
I-2
I-2
I-2
I-2
I-2
I-4
I-4
I-4
I-4
I-4
tp140
(I-4
I-4
I-4
I-4
I-4
I-2
I-2
I-2
I-2
I-2
I-2
I-2
I-2
I-2
I-4
I-4
I-4
I-4
I-4
tp141
(I-4
I-4
I-4
I-4
I-4
I-2
I-2
I-2
I-2
I-2
I-2
I-2
I-2
I-2
I-4
I-4
I-4
I-4
I-4
tp142
(I-4
I-4
I-4
I-4
I-4
I-2
I-2
I-2
I-2
I-2
I-2
I-2
I-2
I-2
I-4
I-4
I-4
I-4
I-4
tp143
(I-4
I-4
I-4
I-4
I-4
I-2
I-2
I-2
I-2
I-2
I-2
I-2
I-2
I-2
I-4
I-4
I-4
I-4
I-4
tp144
(I-4
I-4
I-4
I-4
I-4
I-2
I-2
I-2
I-2
I-2
I-2
I-2
I-2
I-2
I-4
I-4
I-4
I-4
I-4
tp145
(I-4
I-4
I-4
I-4
I-4
I-2
I-2
I-2
I-2
I-2
I-2
I-2
I-2
I-2
I-4
I-4
I-4
I-4
I-4
tp146
(I-4
I-4
I-4
I-4
I-4
I-2
I-2
I-2
I-2
I-2
I-2
I-2
I-2
I-2
I-4
I-4
I-4
I-4
I-4
tp147
(I-4
I-4
I-4
I-4
I-4
I-2
I-2
I-2
I-2
I-2
I0
I-2
I-2
I-2
I-4
I-4
I-4
I-4
I-4
tp148
(I-4
I-4
I-4
I-4
I-4
I-2
I-2
I-2
I-2
I-2
I-2
I-2
I-2
I-2
I-4
I-4
I-4
I-4
I-4
tp149
(I-4
I-4
I-4
I-4
I-4
I-4
I-4
I-4
I-4
I-4
I-4
I-4
I-4
I-4
I-4
I-4
I-4
I-4
I-4
tp150
tp151
(I11
I10
tp152
I14
I19
tp153
g40
tp154
F0.0
s((((I-4
I-4
I-4
I-4
I-4
I-4
I-4
I-4
I-4
I-4
I-4
I-4
I-4
I-4
I-4
I-4
I-4
I-4
I-4
tp155
(I-4
I-4
I-4
I-4
I-4
I-2
I-2
I-2
I-4
I1
I-4
I-2
I-2
I-2
I-4
I-4
I-4
I-4
I-4
tp156
(I-4
I-4
I-4
I-4
I-4
I-2
I-2
I-2
I-4
I-4
I-4
I-2
I-2
I-2
I-4
I-4
I-4
I-4
I-4
tp157
(I-4
I-4
I-2
I-4
I-4
I-2
I-2
I-2
I-2
I-2
I-2
I-2
I-2
I-2
I-4
I-4
I-4
I-4
I-4
tp158
(I-4
I-2
I-4
I-4
I-4
I-2
I-2
I-2
I-2
I-2
I-2
I-2
I-2
I-2
I-4
I-4
I-4
I-4
I-4
tp159
(I-4
I-2
I-4
I-4
I-4
I-2
I-2
I-2
I-2
I-2
I-2
I-2
I-2
I-2
I-4
I-4
I-4
I-4
I-4
tp160
(I-4
I-4
I-4
I-4
I-4
I-2
I-2
I-2
I-2
I-2
I-2
I-2
I-2
I-2
I-4
I-4
I-4
I-4
I-4
tp161
(I-4
I-4
I-4
I-4
I-4
I-2
I-2
I-2
I-2
I-2
I-2
I-2
I-2
I-2
I-4
I-4
I-4
I-4
I-4
tp162
(I-4
I-4
I-4
I-4
I-4
I-2
I-2
I-2
I-2
I-2
I-2
I-2
I-2
I-2
I-4
I-4
I-4
I-4
I-4
tp163
(I-4
I-4
I-4
I-4
I-4
I-2
I-2
I-2
I-2
I-2
I-2
I-2
I-2
I-2
I-4
I-4
I-4
I-4
I-4
tp164
(I-4
I-4
I-4
I-4
I-4
I-2
I-2
I-2
I-2
I-2
I-2
I-2
I-2
I-2
I-4
I-4
I-4
I-4
I-4
tp165
(I-4
I-4
I-4
I-4
I-4
I-2
I-2
I-2
I-2
I-2
I-2
I0
I-2
I-2
I-4
I-4
I-4
I-4
I-4
tp166
(I-4
I-4
I-4
I-4
I-4
I-2
I-2
I-2
I-2
I-2
I-2
I-2
I-2
I-2
I-4
I-4
I-4
I-4
I-4
tp167
(I-4
I-4
I-4
I-4
I-4
I-4
I-4
I-4
I-4
I-4
I-4
I-4
I-4
I-4
I-4
I-4
I-4
I-4
I-4
tp168
tp169
(I11
I11
tp170
I14
I19
tp171
g59
tp172
F0.09980390820312501
s((((I-4
I-4
I-4
I-4
I-4
I-4
I-4
I-4
I-4
I-4
I-4
I-4
I-4
I-4
I-4
I-4
I-4
I-4
I-4
tp173
(I-4
I-4
I-4
I-4
I-4
I-2
I-2
I-2
I-4
I1
I-4
I-2
I-2
I-2
I-4
I-4
I-4
I-4
I-4
tp174
(I-4
I-4
I-4
I-4
I-4
I-2
I-2
I-2
I-4
I-4
I-4
I-2
I-2
I-2
I-4
I-4
I-4
I-4
I-4
tp175
(I-4
I-4
I-2
I-4
I-4
I-2
I-2
I-2
I-2
I-2
I-2
I-2
I-2
I-2
I-4
I-4
I-4
I-4
I-4
tp176
(I-4
I-2
I-4
I-4
I-4
I-2
I-2
I-2
I-2
I-2
I-2
I-2
I-2
I-2
I-4
I-4
I-4
I-4
I-4
tp177
(I-4
I-2
I-4
I-4
I-4
I-2
I-2
I-2
I-2
I-2
I-2
I-2
I-2
I-2
I-4
I-4
I-4
I-4
I-4
tp178
(I-4
I-4
I-4
I-4
I-4
I-2
I-2
I-2
I-2
I-2
I-2
I-2
I-2
I-2
I-4
I-4
I-4
I-4
I-4
tp179
(I-4
I-4
I-4
I-4
I-4
I-2
I-2
I-2
I-2
I-2
I-2
I-2
I-2
I-2
I-4
I-4
I-4
I-4
I-4
tp180
(I-4
I-4
I-4
I-4
I-4
I-2
I-2
I-2
I-2
I-2
I-2
I-2
I-2
I-2
I-4
I-4
I-4
I-4
I-4
tp181
(I-4
I-4
I-4
I-4
I-4
I-2
I-2
I-2
I-2
I-2
I-2
I-2
I-2
I-2
I-4
I-4
I-4
I-4
I-4
tp182
(I-4
I-4
I-4
I-4
I-4
I-2
I-2
I-2
I-2
I-2
I-2
I-2
I-2
I-2
I-4
I-4
I-4
I-4
I-4
tp183
(I-4
I-4
I-4
I-4
I-4
I-2
I-2
I-2
I-2
I-2
I-2
I-2
I-2
I0
I-4
I-4
I-4
I-4
I-4
tp184
(I-4
I-4
I-4
I-4
I-4
I-2
I-2
I-2
I-2
I-2
I-2
I-2
I-2
I-2
I-4
I-4
I-4
I-4
I-4
tp185
(I-4
I-4
I-4
I-4
I-4
I-4
I-4
I-4
I-4
I-4
I-4
I-4
I-4
I-4
I-4
I-4
I-4
I-4
I-4
tp186
tp187
(I11
I13
tp188
I14
I19
tp189
g78
tp190
F0.0008654296875000003
s((((I-2
I-4
I-4
I-4
I-4
I-4
I-4
I-4
I-4
I-4
I-4
I-4
I-4
I-4
I-4
I-4
I-4
I-4
I-2
tp191
(I-2
I-2
I-4
I-4
I-4
I-2
I-2
I-2
I-4
I1
I-4
I-2
I-2
I-2
I-4
I-4
I-4
I-2
I-2
tp192
(I-2
I-2
I-4
I-4
I-4
I-2
I-2
I-2
I-4
I-4
I-4
I-2
I-2
I-2
I-4
I-4
I-4
I-2
I-2
tp193
(I-2
I-2
I-2
I-4
I-4
I-2
I-2
I-2
I-2
I-2
I-2
I-2
I-2
I-2
I-4
I-4
I-2
I-2
I-2
tp194
(I-2
I-2
I-4
I-4
I-4
I-2
I-2
I-2
I-2
I-2
I-2
I-2
I-2
I-2
I-4
I-4
I-4
I-2
I-2
tp195
(I-2
I-2
I-4
I-4
I-4
I-2
I-2
I-2
I-2
I-2
I-2
I-2
I-2
I-2
I-4
I-4
I-4
I-2
I-2
tp196
(I-2
I-4
I-4
I-4
I-4
I-2
I-2
I-2
I-2
I-2
I-2
I-2
I-2
I-2
I-4
I-4
I-4
I-4
I-2
tp197
(I-2
I-4
I-4
I-4
I-4
I-2
I-2
I-2
I-2
I-2
I-2
I-2
I-2
I-2
I-4
I-4
I-4
I-4
I-2
tp198
(I-2
I-4
I-4
I-4
I-4
I-2
I-2
I-2
I-2
I-2
I-2
I-2
I-2
I-2
I-4
I-4
I-4
I-4
I-2
tp199
(I-2
I-4
I-4
I-4
I-4
I-2
I-2
I-2
I-2
I-2
I-2
I-2
I-2
I-2
I-4
I-4
I-4
I-4
I-2
tp200
(I-2
I-4
I-4
I-4
I-4
I-2
I-2
I-2
I-2
I-2
I-2
I-2
I-2
I-2
I-4
I-4
I-4
I-4
I-2
tp201
(I-2
I-4
I-4
I-4
I-4
I-2
I-2
I-2
I-2
I0
I-2
I-2
I-2
I-2
I-4
I-4
I-4
I-4
I-2
tp202
(I-2
I-4
I-4
I-4
I-4
I-2
I-2
I-2
I-2
I-2
I-2
I-2
I-2
I-2
I-4
I-4
I-4
I-4
I-2
tp203
(I-2
I-4
I-4
I-4
I-4
I-4
I-4
I-4
I-4
I-4
I-4
I-4
I-4
I-4
I-4
I-4
I-4
I-4
I-2
tp204
tp205
(I11
I9
tp206
I14
I19
tp207
g78
tp208
I0
s((((I-2
I-4
I-4
I-4
I-4
I-4
I-4
I-4
I-4
I-4
I-4
I-4
I-4
I-4
I-4
I-4
I-4
I-4
I-4
tp209
(I-2
I-2
I-4
I-4
I-4
I-2
I-2
I-2
I-4
I1
I-4
I-2
I-2
I-2
I-4
I-4
I-4
I-4
I-2
tp210
(I-2
I-2
I-4
I-4
I-4
I-2
I-2
I-2
I-4
I-4
I-4
I-2
I-2
I-2
I-4
I-4
I-4
I-4
I-2
tp211
(I-2
I-2
I-2
I-4
I-4
I-2
I-2
I-2
I-2
I-2
I-2
I-2
I-2
I-2
I-4
I-4
I-4
I-2
I-2
tp212
(I-2
I-2
I-4
I-4
I-4
I-2
I-2
I-2
I-2
I-2
I-2
I-2
I-2
I-2
I-4
I-4
I-4
I-2
I-2
tp213
(I-2
I-2
I-4
I-4
I-4
I-2
I-2
I-2
I-2
I-2
I-2
I-2
I-2
I-2
I-4
I-4
I-4
I-2
I-2
tp214
(I-2
I-4
I-4
I-4
I-4
I-2
I-2
I-2
I-2
I-2
I-2
I-2
I-2
I-2
I-4
I-4
I-4
I-4
I-2
tp215
(I-2
I-4
I-4
I-4
I-4
I-2
I-2
I-2
I-2
I-2
I-2
I-2
I-2
I-2
I-4
I-4
I-4
I-4
I-2
tp216
(I-2
I-4
I-4
I-4
I-4
I-2
I-2
I-2
I-2
I-2
I-2
I-2
I-2
I-2
I-4
I-4
I-4
I-4
I-4
tp217
(I-2
I-4
I-4
I-4
I-4
I-2
I-2
I-2
I-2
I-2
I-2
I-2
I-2
I-2
I-4
I-4
I-4
I-4
I-4
tp218
(I-2
I-4
I-4
I-4
I-4
I-2
I-2
I-2
I-2
I-2
I-2
I-2
I-2
I-2
I-4
I-4
I-4
I-4
I-4
tp219
(I-2
I-4
I-4
I-4
I-4
I-2
I-2
I-2
I-2
I0
I-2
I-2
I-2
I-2
I-4
I-4
I-4
I-4
I-4
tp220
(I-2
I-4
I-4
I-4
I-4
I-2
I-2
I-2
I-2
I-2
I-2
I-2
I-2
I-2
I-4
I-4
I-4
I-4
I-4
tp221
(I-2
I-4
I-4
I-4
I-4
I-4
I-4
I-4
I-4
I-4
I-4
I-4
I-4
I-4
I-4
I-4
I-4
I-4
I-4
tp222
tp223
(I11
I9
tp224
I14
I19
tp225
g59
tp226
I0
s((((I-4
I-4
I-4
I-4
I-4
I-4
I-4
I-4
I-4
I-4
I-4
I-4
I-4
I-4
I-4
I-4
I-4
I-4
I-4
tp227
(I-4
I-4
I-4
I-4
I-4
I-2
I-2
I-2
I-4
I1
I-4
I-2
I-2
I-2
I-4
I-4
I-4
I-4
I-4
tp228
(I-4
I-4
I-4
I-4
I-4
I-2
I-2
I-2
I-4
I-4
I-4
I-2
I-2
I-2
I-4
I-4
I-4
I-4
I-4
tp229
(I-4
I-4
I-4
I-4
I-4
I-2
I-2
I-2
I-2
I-2
I-2
I-2
I-2
I-2
I-4
I-4
I-4
I-4
I-4
tp230
(I-4
I-2
I-4
I-4
I-4
I-2
I-2
I-2
I-2
I-2
I-2
I-2
I-2
I-2
I-4
I-4
I-4
I-4
I-4
tp231
(I-4
I-4
I-4
I-4
I-4
I-2
I-2
I-2
I-2
I-2
I-2
I-2
I-2
I-2
I-4
I-4
I-4
I-4
I-4
tp232
(I-4
I-4
I-4
I-4
I-4
I-2
I-2
I-2
I-2
I-2
I-2
I-2
I-2
I-2
I-4
I-4
I-4
I-4
I-4
tp233
(I-4
I-4
I-4
I-4
I-4
I-2
I-2
I-2
I-2
I-2
I-2
I-2
I-2
I-2
I-4
I-4
I-4
I-4
I-4
tp234
(I-4
I-4
I-4
I-4
I-4
I-2
I-2
I-2
I-2
I-2
I-2
I0
I-2
I-2
I-4
I-4
I-4
I-4
I-4
tp235
(I-4
I-4
I-4
I-4
I-4
I-2
I-2
I-2
I-2
I-2
I-2
I-2
I-2
I-2
I-4
I-4
I-4
I-4
I-4
tp236
(I-4
I-4
I-4
I-4
I-4
I-2
I-2
I-2
I-2
I-2
I-2
I-2
I-2
I-2
I-4
I-4
I-4
I-4
I-4
tp237
(I-4
I-4
I-4
I-4
I-4
I-2
I-2
I-2
I-2
I-2
I-2
I-2
I-2
I-2
I-4
I-4
I-4
I-4
I-4
tp238
(I-4
I-4
I-4
I-4
I-4
I-2
I-2
I-2
I-2
I-2
I-2
I-2
I-2
I-2
I-4
I-4
I-4
I-4
I-4
tp239
(I-4
I-4
I-4
I-4
I-4
I-4
I-4
I-4
I-4
I-4
I-4
I-4
I-4
I-4
I-4
I-4
I-4
I-4
I-4
tp240
tp241
(I8
I11
tp242
I14
I19
tp243
g78
tp244
I0
s((((I-4
I-4
I-4
I-4
I-4
I-4
I-4
I-4
I-4
I-4
I-4
I-4
I-4
I-4
I-4
I-4
I-4
I-4
I-4
tp245
(I-4
I-4
I-4
I-4
I-4
I-2
I-2
I-2
I-4
I1
I-4
I-2
I-2
I-2
I-4
I-4
I-4
I-4
I-4
tp246
(I-4
I-4
I-4
I-4
I-4
I-2
I-2
I-2
I-4
I-4
I-4
I-2
I-2
I-2
I-4
I-4
I-4
I-4
I-4
tp247
(I-4
I-4
I-2
I-4
I-4
I-2
I-2
I-2
I-2
I-2
I-2
I-2
I-2
I-2
I-4
I-4
I-4
I-4
I-4
tp248
(I-4
I-2
I-4
I-4
I-4
I-2
I-2
I-2
I-2
I-2
I-2
I-2
I-2
I-2
I-4
I-4
I-4
I-4
I-4
tp249
(I-4
I-2
I-4
I-4
I-4
I-2
I-2
I-2
I-2
I-2
I-2
I-2
I-2
I-2
I-4
I-4
I-4
I-4
I-4
tp250
(I-4
I-4
I-4
I-4
I-4
I-2
I-2
I-2
I-2
I-2
I-2
I-2
I-2
I-2
I-4
I-4
I-4
I-4
I-4
tp251
(I-4
I-4
I-4
I-4
I-4
I-2
I-2
I-2
I-2
I-2
I-2
I-2
I-2
I-2
I-4
I-4
I-4
I-4
I-4
tp252
(I-4
I-4
I-4
I-4
I-4
I-2
I-2
I-2
I-2
I-2
I-2
I-2
I-2
I-2
I-4
I-4
I-4
I-4
I-4
tp253
(I-4
I-4
I-4
I-4
I-4
I-2
I-2
I-2
I-2
I-2
I-2
I-2
I-2
I-2
I-4
I-4
I-4
I-4
I-4
tp254
(I-4
I-4
I-4
I-4
I-4
I-2
I-2
I-2
I-2
I-2
I-2
I-2
I-2
I-2
I-4
I-4
I-4
I-4
I-4
tp255
(I-4
I-4
I-4
I-4
I-4
I-2
I-2
I-2
I-2
I-2
I-2
I-2
I0
I-2
I-4
I-4
I-4
I-4
I-4
tp256
(I-4
I-4
I-4
I-4
I-4
I-2
I-2
I-2
I-2
I-2
I-2
I-2
I-2
I-2
I-4
I-4
I-4
I-4
I-4
tp257
(I-4
I-4
I-4
I-4
I-4
I-4
I-4
I-4
I-4
I-4
I-4
I-4
I-4
I-4
I-4
I-4
I-4
I-4
I-4
tp258
tp259
(I11
I12
tp260
I14
I19
tp261
g59
tp262
I0
s((((I-4
I-4
I-4
I-4
I-4
I-4
I-4
I-4
I-4
I-4
I-4
I-4
I-4
I-4
I-4
I-4
I-4
I-4
I-4
tp263
(I-4
I-4
I-4
I-4
I-4
I-2
I-2
I-2
I-4
I1
I-4
I-2
I-2
I-2
I-4
I-4
I-4
I-4
I-4
tp264
(I-4
I-4
I-4
I-4
I-4
I-2
I-2
I-2
I-4
I-4
I-4
I-2
I-2
I-2
I-4
I-4
I-4
I-4
I-4
tp265
(I-4
I-4
I-4
I-4
I-4
I-2
I-2
I-2
I-2
I-2
I-2
I-2
I0
I-2
I-4
I-4
I-4
I-4
I-4
tp266
(I-4
I-4
I-4
I-4
I-4
I-2
I-2
I-2
I-2
I-2
I-2
I-2
I-2
I-2
I-4
I-4
I-4
I-4
I-4
tp267
(I-4
I-4
I-4
I-4
I-4
I-2
I-2
I-2
I-2
I-2
I-2
I-2
I-2
I-2
I-4
I-4
I-4
I-4
I-4
tp268
(I-4
I-4
I-4
I-4
I-4
I-2
I-2
I-2
I-2
I-2
I-2
I-2
I-2
I-2
I-4
I-4
I-4
I-4
I-4
tp269
(I-4
I-4
I-4
I-4
I-4
I-2
I-2
I-2
I-2
I-2
I-2
I-2
I-2
I-2
I-4
I-4
I-4
I-4
I-4
tp270
(I-4
I-4
I-4
I-4
I-4
I-2
I-2
I-2
I-2
I-2
I-2
I-2
I-2
I-2
I-4
I-4
I-4
I-4
I-4
tp271
(I-4
I-4
I-4
I-4
I-4
I-2
I-2
I-2
I-2
I-2
I-2
I-2
I-2
I-2
I-4
I-4
I-4
I-4
I-4
tp272
(I-4
I-4
I-4
I-4
I-4
I-2
I-2
I-2
I-2
I-2
I-2
I-2
I-2
I-2
I-4
I-4
I-4
I-4
I-4
tp273
(I-4
I-4
I-4
I-4
I-4
I-2
I-2
I-2
I-2
I-2
I-2
I-2
I-2
I-2
I-4
I-4
I-4
I-4
I-4
tp274
(I-4
I-4
I-4
I-4
I-4
I-2
I-2
I-2
I-2
I-2
I-2
I-2
I-2
I-2
I-4
I-4
I-4
I-4
I-4
tp275
(I-4
I-4
I-4
I-4
I-4
I-4
I-4
I-4
I-4
I-4
I-4
I-4
I-4
I-4
I-4
I-4
I-4
I-4
I-4
tp276
tp277
(I3
I12
tp278
I14
I19
tp279
S'e'
p280
tp281
I0
s((((I-2
I-2
I-4
I-4
I-4
I-4
I-4
I-4
I-4
I-4
I-4
I-4
I-4
I-4
I-4
I-4
I-4
I-2
I-2
tp282
(I-2
I-2
I-2
I-4
I-4
I-2
I-2
I-2
I-4
I1
I-4
I-2
I-2
I-2
I-4
I-4
I-2
I-2
I-2
tp283
(I-2
I-2
I-2
I-2
I-4
I-2
I-2
I-2
I-4
I-4
I-4
I-2
I-2
I-2
I-4
I-2
I-2
I-2
I-2
tp284
(I-2
I-2
I-2
I-4
I-4
I-2
I-2
I-2
I-2
I-2
I-2
I-2
I-2
I-2
I-4
I-4
I-2
I-2
I-2
tp285
(I-2
I-2
I-4
I-4
I-4
I-2
I-2
I-2
I-2
I-2
I-2
I-2
I-2
I-2
I-4
I-4
I-4
I-2
I-2
tp286
(I-2
I-2
I-4
I-4
I-4
I-2
I-2
I-2
I-2
I-2
I-2
I-2
I-2
I-2
I-4
I-4
I-4
I-2
I-2
tp287
(I-2
I-4
I-4
I-4
I-4
I-2
I-2
I-2
I-2
I-2
I-2
I-2
I-2
I-2
I-4
I-4
I-4
I-4
I-2
tp288
(I-2
I-4
I-4
I-4
I-4
I-2
I-2
I-2
I-2
I-2
I-2
I-2
I-2
I-2
I-4
I-4
I-4
I-4
I-2
tp289
(I-2
I-4
I-4
I-4
I-4
I-2
I-2
I-2
I-2
I-2
I-2
I-2
I-2
I-2
I-4
I-4
I-4
I-4
I-2
tp290
(I-2
I-4
I-4
I-4
I-4
I-2
I-2
I-2
I-2
I0
I-2
I-2
I-2
I-2
I-4
I-4
I-4
I-4
I-2
tp291
(I-2
I-4
I-4
I-4
I-4
I-2
I-2
I-2
I-2
I-2
I-2
I-2
I-2
I-2
I-4
I-4
I-4
I-4
I-2
tp292
(I-2
I-4
I-4
I-4
I-4
I-2
I-2
I-2
I-2
I-2
I-2
I-2
I-2
I-2
I-4
I-4
I-4
I-4
I-2
tp293
(I-2
I-4
I-4
I-4
I-4
I-2
I-2
I-2
I-2
I-2
I-2
I-2
I-2
I-2
I-4
I-4
I-4
I-4
I-2
tp294
(I-2
I-2
I-4
I-4
I-4
I-4
I-4
I-4
I-4
I-4
I-4
I-4
I-4
I-4
I-4
I-4
I-4
I-2
I-2
tp295
tp296
(I9
I9
tp297
I14
I19
tp298
g78
tp299
F7.115710215070151e-05
s((((I-4
I-4
I-4
I-4
I-4
I-4
I-4
I-4
I-4
I-4
I-4
I-4
I-4
I-4
I-4
I-4
I-4
I-4
I-4
tp300
(I-4
I-4
I-4
I-4
I-4
I-2
I-2
I-2
I-4
I1
I-4
I-2
I-2
I-2
I-4
I-4
I-4
I-4
I-4
tp301
(I-4
I-4
I-4
I-4
I-4
I-2
I-2
I-2
I-4
I-4
I-4
I-2
I-2
I-2
I-4
I-4
I-4
I-4
I-4
tp302
(I-4
I-4
I-4
I-4
I-4
I-2
I-2
I-2
I-2
I-2
I-2
I-2
I-2
I-2
I-4
I-4
I-4
I-4
I-4
tp303
(I-4
I-4
I-4
I-4
I-4
I-2
I-2
I-2
I-2
I-2
I-2
I-2
I-2
I-2
I-4
I-4
I-4
I-4
I-4
tp304
(I-4
I-4
I-4
I-4
I-4
I-2
I-2
I-2
I-2
I-2
I-2
I-2
I-2
I-2
I-4
I-4
I-4
I-4
I-4
tp305
(I-4
I-4
I-4
I-4
I-4
I-2
I-2
I-2
I-2
I-2
I-2
I-2
I-2
I-2
I-4
I-4
I-4
I-4
I-4
tp306
(I-4
I-4
I-4
I-4
I-4
I-2
I-2
I-2
I-2
I-2
I-2
I-2
I-2
I-2
I-4
I-4
I-4
I-4
I-4
tp307
(I-4
I-4
I-4
I-4
I-4
I-2
I-2
I-2
I-2
I-2
I-2
I-2
I-2
I-2
I-4
I-4
I-4
I-4
I-4
tp308
(I-4
I-4
I-4
I-4
I-4
I-2
I-2
I-2
I-2
I-2
I-2
I-2
I0
I-2
I-4
I-4
I-4
I-4
I-4
tp309
(I-4
I-4
I-4
I-4
I-4
I-2
I-2
I-2
I-2
I-2
I-2
I-2
I-2
I-2
I-4
I-4
I-4
I-4
I-4
tp310
(I-4
I-4
I-4
I-4
I-4
I-2
I-2
I-2
I-2
I-2
I-2
I-2
I-2
I-2
I-4
I-4
I-4
I-4
I-4
tp311
(I-4
I-4
I-4
I-4
I-4
I-2
I-2
I-2
I-2
I-2
I-2
I-2
I-2
I-2
I-4
I-4
I-4
I-4
I-4
tp312
(I-4
I-4
I-4
I-4
I-4
I-4
I-4
I-4
I-4
I-4
I-4
I-4
I-4
I-4
I-4
I-4
I-4
I-4
I-4
tp313
tp314
(I9
I12
tp315
I14
I19
tp316
g59
tp317
I0
s((((I-4
I-4
I-4
I-4
I-4
I-4
I-4
I-4
I-4
I-4
I-4
I-4
I-4
I-4
I-4
I-4
I-4
I-4
I-4
tp318
(I-4
I-4
I-4
I-4
I-4
I-2
I-2
I-2
I-4
I1
I-4
I-2
I-2
I-2
I-4
I-4
I-4
I-4
I-4
tp319
(I-4
I-4
I-4
I-4
I-4
I-2
I-2
I-2
I-4
I-4
I-4
I-2
I-2
I-2
I-4
I-4
I-4
I-4
I-4
tp320
(I-4
I-4
I-2
I-4
I-4
I-2
I-2
I-2
I-2
I-2
I-2
I-2
I-2
I-2
I-4
I-4
I-4
I-4
I-4
tp321
(I-4
I-2
I-4
I-4
I-4
I-2
I-2
I-2
I-2
I-2
I-2
I-2
I-2
I-2
I-4
I-4
I-4
I-4
I-4
tp322
(I-4
I-2
I-4
I-4
I-4
I-2
I-2
I-2
I-2
I-2
I-2
I-2
I-2
I-2
I-4
I-4
I-4
I-4
I-4
tp323
(I-4
I-4
I-4
I-4
I-4
I-2
I-2
I-2
I-2
I-2
I-2
I-2
I-2
I-2
I-4
I-4
I-4
I-4
I-4
tp324
(I-4
I-4
I-4
I-4
I-4
I-2
I-2
I-2
I-2
I-2
I-2
I-2
I-2
I-2
I-4
I-4
I-4
I-4
I-4
tp325
(I-4
I-4
I-4
I-4
I-4
I-2
I-2
I-2
I-2
I-2
I-2
I-2
I-2
I-2
I-4
I-4
I-4
I-4
I-4
tp326
(I-4
I-4
I-4
I-4
I-4
I-2
I-2
I-2
I-2
I-2
I0
I-2
I-2
I-2
I-4
I-4
I-4
I-4
I-4
tp327
(I-4
I-4
I-4
I-4
I-4
I-2
I-2
I-2
I-2
I-2
I-2
I-2
I-2
I-2
I-4
I-4
I-4
I-4
I-4
tp328
(I-4
I-4
I-4
I-4
I-4
I-2
I-2
I-2
I-2
I-2
I-2
I-2
I-2
I-2
I-4
I-4
I-4
I-4
I-4
tp329
(I-4
I-4
I-4
I-4
I-4
I-2
I-2
I-2
I-2
I-2
I-2
I-2
I-2
I-2
I-4
I-4
I-4
I-4
I-4
tp330
(I-4
I-4
I-4
I-4
I-4
I-4
I-4
I-4
I-4
I-4
I-4
I-4
I-4
I-4
I-4
I-4
I-4
I-4
I-4
tp331
tp332
(I9
I10
tp333
I14
I19
tp334
g135
tp335
I0
s((((I-2
I-4
I-4
I-4
I-4
I-4
I-4
I-4
I-4
I-4
I-4
I-4
I-4
I-4
I-4
I-4
I-4
I-4
I-4
tp336
(I-2
I-2
I-4
I-4
I-4
I-2
I-2
I-2
I-4
I1
I-4
I-2
I-2
I-2
I-4
I-4
I-4
I-4
I-4
tp337
(I-2
I-2
I-4
I-4
I-4
I-2
I-2
I-2
I-4
I-4
I-4
I-2
I-2
I-2
I-4
I-4
I-4
I-4
I-2
tp338
(I-2
I-2
I-2
I-4
I-4
I-2
I-2
I-2
I-2
I-2
I-2
I-2
I-2
I-2
I-4
I-4
I-4
I-4
I-2
tp339
(I-2
I-2
I-4
I-4
I-4
I-2
I-2
I-2
I-2
I-2
I-2
I-2
I-2
I-2
I-4
I-4
I-4
I-2
I-2
tp340
(I-2
I-2
I-4
I-4
I-4
I-2
I-2
I-2
I-2
I-2
I-2
I-2
I-2
I-2
I-4
I-4
I-4
I-2
I-2
tp341
(I-2
I-4
I-4
I-4
I-4
I-2
I-2
I-2
I-2
I-2
I-2
I-2
I-2
I-2
I-4
I-4
I-4
I-4
I-2
tp342
(I-2
I-4
I-4
I-4
I-4
I-2
I-2
I-2
I-2
I-2
I-2
I-2
I-2
I-2
I-4
I-4
I-4
I-4
I-2
tp343
(I-2
I-4
I-4
I-4
I-4
I-2
I-2
I-2
I-2
I-2
I-2
I-2
I-2
I-2
I-4
I-4
I-4
I-4
I-4
tp344
(I-2
I-4
I-4
I-4
I-4
I-2
I-2
I-2
I-2
I-2
I-2
I-2
I-2
I-2
I-4
I-4
I-4
I-4
I-4
tp345
(I-2
I-4
I-4
I-4
I-4
I-2
I-2
I-2
I-2
I-2
I-2
I-2
I-2
I-2
I-4
I-4
I-4
I-4
I-4
tp346
(I-2
I-4
I-4
I-4
I-4
I-2
I-2
I-2
I-2
I-2
I0
I-2
I-2
I-2
I-4
I-4
I-4
I-4
I-4
tp347
(I-2
I-4
I-4
I-4
I-4
I-2
I-2
I-2
I-2
I-2
I-2
I-2
I-2
I-2
I-4
I-4
I-4
I-4
I-4
tp348
(I-2
I-4
I-4
I-4
I-4
I-4
I-4
I-4
I-4
I-4
I-4
I-4
I-4
I-4
I-4
I-4
I-4
I-4
I-4
tp349
tp350
(I11
I10
tp351
I14
I19
tp352
g135
tp353
I0
s((((I-4
I-4
I-4
I-4
I-4
I-4
I-4
I-4
I-4
I-4
I-4
I-4
I-4
I-4
I-4
I-4
I-4
I-4
I-4
tp354
(I-4
I-4
I-4
I-4
I-4
I-2
I-2
I-2
I-4
I1
I-4
I-2
I-2
I-2
I-4
I-4
I-4
I-4
I-4
tp355
(I-4
I-4
I-4
I-4
I-4
I-2
I-2
I-2
I-4
I-4
I-4
I-2
I-2
I-2
I-4
I-4
I-4
I-4
I-4
tp356
(I-4
I-4
I-4
I-4
I-4
I-2
I-2
I-2
I-2
I-2
I-2
I-2
I-2
I-2
I-4
I-4
I-4
I-4
I-4
tp357
(I-4
I-4
I-4
I-4
I-4
I-2
I-2
I-2
I-2
I-2
I-2
I-2
I-2
I-2
I-4
I-4
I-4
I-4
I-4
tp358
(I-4
I-4
I-4
I-4
I-4
I-2
I-2
I-2
I-2
I-2
I-2
I-2
I-2
I-2
I-4
I-4
I-4
I-4
I-4
tp359
(I-4
I-4
I-4
I-4
I-4
I-2
I-2
I-2
I-2
I-2
I-2
I-2
I0
I-2
I-4
I-4
I-4
I-4
I-4
tp360
(I-4
I-4
I-4
I-4
I-4
I-2
I-2
I-2
I-2
I-2
I-2
I-2
I-2
I-2
I-4
I-4
I-4
I-4
I-4
tp361
(I-4
I-4
I-4
I-4
I-4
I-2
I-2
I-2
I-2
I-2
I-2
I-2
I-2
I-2
I-4
I-4
I-4
I-4
I-4
tp362
(I-4
I-4
I-4
I-4
I-4
I-2
I-2
I-2
I-2
I-2
I-2
I-2
I-2
I-2
I-4
I-4
I-4
I-4
I-4
tp363
(I-4
I-4
I-4
I-4
I-4
I-2
I-2
I-2
I-2
I-2
I-2
I-2
I-2
I-2
I-4
I-4
I-4
I-4
I-4
tp364
(I-4
I-4
I-4
I-4
I-4
I-2
I-2
I-2
I-2
I-2
I-2
I-2
I-2
I-2
I-4
I-4
I-4
I-4
I-4
tp365
(I-4
I-4
I-4
I-4
I-4
I-2
I-2
I-2
I-2
I-2
I-2
I-2
I-2
I-2
I-4
I-4
I-4
I-4
I-4
tp366
(I-4
I-4
I-4
I-4
I-4
I-4
I-4
I-4
I-4
I-4
I-4
I-4
I-4
I-4
I-4
I-4
I-4
I-4
I-4
tp367
tp368
(I6
I12
tp369
I14
I19
tp370
g78
tp371
F0.0018750000000000004
s(g316
g40
tp372
I0
s((((I-4
I-4
I-4
I-4
I-4
I-4
I-4
I-4
I-4
I-4
I-4
I-4
I-4
I-4
I-4
I-4
I-4
I-4
I-4
tp373
(I-4
I-4
I-4
I-4
I-4
I-2
I-2
I-2
I-4
I1
I-4
I-2
I-2
I-2
I-4
I-4
I-4
I-4
I-4
tp374
(I-4
I-4
I-4
I-4
I-4
I-2
I-2
I-2
I-4
I-4
I-4
I-2
I-2
I-2
I-4
I-4
I-4
I-4
I-4
tp375
(I-4
I-4
I-4
I-4
I-4
I-2
I-2
I-2
I-2
I-2
I-2
I-2
I-2
I-2
I-4
I-4
I-4
I-4
I-4
tp376
(I-4
I-4
I-4
I-4
I-4
I-2
I-2
I-2
I-2
I-2
I-2
I-2
I-2
I-2
I-4
I-4
I-4
I-4
I-4
tp377
(I-4
I-4
I-4
I-4
I-4
I-2
I-2
I-2
I-2
I-2
I-2
I-2
I-2
I-2
I-4
I-4
I-4
I-4
I-4
tp378
(I-4
I-4
I-4
I-4
I-4
I-2
I-2
I-2
I-2
I-2
I-2
I-2
I-2
I-2
I-4
I-4
I-4
I-4
I-4
tp379
(I-4
I-4
I-4
I-4
I-4
I-2
I-2
I-2
I-2
I-2
I-2
I-2
I-2
I-2
I-4
I-4
I-4
I-4
I-4
tp380
(I-4
I-4
I-4
I-4
I-4
I-2
I-2
I-2
I-2
I0
I-2
I-2
I-2
I-2
I-4
I-4
I-4
I-4
I-4
tp381
(I-4
I-4
I-4
I-4
I-4
I-2
I-2
I-2
I-2
I-2
I-2
I-2
I-2
I-2
I-4
I-4
I-4
I-4
I-4
tp382
(I-4
I-4
I-4
I-4
I-4
I-2
I-2
I-2
I-2
I-2
I-2
I-2
I-2
I-2
I-4
I-4
I-4
I-4
I-4
tp383
(I-4
I-4
I-4
I-4
I-4
I-2
I-2
I-2
I-2
I-2
I-2
I-2
I-2
I-2
I-4
I-4
I-4
I-4
I-4
tp384
(I-4
I-4
I-4
I-4
I-4
I-2
I-2
I-2
I-2
I-2
I-2
I-2
I-2
I-2
I-4
I-4
I-4
I-4
I-4
tp385
(I-4
I-4
I-4
I-4
I-4
I-4
I-4
I-4
I-4
I-4
I-4
I-4
I-4
I-4
I-4
I-4
I-4
I-4
I-4
tp386
tp387
(I8
I9
tp388
I14
I19
tp389
g135
tp390
F0.5
s((((I-2
I-2
I-4
I-4
I-4
I-4
I-4
I-4
I-4
I-4
I-4
I-4
I-4
I-4
I-4
I-4
I-4
I-2
I-2
tp391
(I-2
I-2
I-4
I-4
I-4
I-2
I-2
I-2
I-4
I1
I-4
I-2
I-2
I-2
I-4
I-4
I-4
I-2
I-2
tp392
(I-2
I-2
I-2
I-4
I-4
I-2
I-2
I-2
I-4
I-4
I-4
I-2
I-2
I-2
I-4
I-4
I-2
I-2
I-2
tp393
(I-2
I-2
I-2
I-4
I-4
I-2
I-2
I-2
I-2
I-2
I-2
I-2
I-2
I-2
I-4
I-4
I-2
I-2
I-2
tp394
(I-2
I-2
I-4
I-4
I-4
I-2
I-2
I-2
I-2
I-2
I-2
I-2
I-2
I-2
I-4
I-4
I-4
I-2
I-2
tp395
(I-2
I-2
I-4
I-4
I-4
I-2
I-2
I-2
I-2
I-2
I-2
I-2
I-2
I-2
I-4
I-4
I-4
I-2
I-2
tp396
(I-2
I-4
I-4
I-4
I-4
I-2
I-2
I-2
I-2
I-2
I-2
I-2
I-2
I-2
I-4
I-4
I-4
I-4
I-2
tp397
(I-2
I-4
I-4
I-4
I-4
I-2
I-2
I-2
I-2
I-2
I-2
I-2
I-2
I-2
I-4
I-4
I-4
I-4
I-2
tp398
(I-2
I-4
I-4
I-4
I-4
I-2
I-2
I-2
I-2
I-2
I-2
I-2
I-2
I-2
I-4
I-4
I-4
I-4
I-2
tp399
(I-2
I-4
I-4
I-4
I-4
I-2
I-2
I-2
I-2
I-2
I-2
I-2
I-2
I-2
I-4
I-4
I-4
I-4
I-2
tp400
(I-2
I-4
I-4
I-4
I-4
I-2
I-2
I-2
I-2
I0
I-2
I-2
I-2
I-2
I-4
I-4
I-4
I-4
I-2
tp401
(I-2
I-4
I-4
I-4
I-4
I-2
I-2
I-2
I-2
I-2
I-2
I-2
I-2
I-2
I-4
I-4
I-4
I-4
I-2
tp402
(I-2
I-4
I-4
I-4
I-4
I-2
I-2
I-2
I-2
I-2
I-2
I-2
I-2
I-2
I-4
I-4
I-4
I-4
I-2
tp403
(I-2
I-4
I-4
I-4
I-4
I-4
I-4
I-4
I-4
I-4
I-4
I-4
I-4
I-4
I-4
I-4
I-4
I-4
I-2
tp404
tp405
(I10
I9
tp406
I14
I19
tp407
g135
tp408
I0
s((((I-4
I-4
I-4
I-4
I-4
I-4
I-4
I-4
I-4
I-4
I-4
I-4
I-4
I-4
I-4
I-4
I-4
I-4
I-4
tp409
(I-4
I-4
I-4
I-4
I-4
I-2
I-2
I-2
I-4
I1
I-4
I-2
I-2
I-2
I-4
I-4
I-4
I-4
I-4
tp410
(I-4
I-4
I-4
I-4
I-4
I-2
I-2
I-2
I-4
I-4
I-4
I-2
I-2
I-2
I-4
I-4
I-4
I-4
I-4
tp411
(I-4
I-4
I-4
I-4
I-4
I-2
I-2
I-2
I-2
I-2
I-2
I-2
I-2
I-2
I-4
I-4
I-4
I-4
I-4
tp412
(I-4
I-4
I-4
I-4
I-4
I-2
I-2
I-2
I-2
I-2
I-2
I-2
I-2
I-2
I-4
I-4
I-4
I-4
I-4
tp413
(I-4
I-4
I-4
I-4
I-4
I-2
I-2
I-2
I-2
I-2
I-2
I-2
I-2
I-2
I-4
I-4
I-4
I-4
I-4
tp414
(I-4
I-4
I-4
I-4
I-4
I-2
I-2
I-2
I-2
I-2
I-2
I-2
I-2
I-2
I-4
I-4
I-4
I-4
I-4
tp415
(I-4
I-4
I-4
I-4
I-4
I-2
I-2
I-2
I-2
I0
I-2
I-2
I-2
I-2
I-4
I-4
I-4
I-4
I-4
tp416
(I-4
I-4
I-4
I-4
I-4
I-2
I-2
I-2
I-2
I-2
I-2
I-2
I-2
I-2
I-4
I-4
I-4
I-4
I-4
tp417
(I-4
I-4
I-4
I-4
I-4
I-2
I-2
I-2
I-2
I-2
I-2
I-2
I-2
I-2
I-4
I-4
I-4
I-4
I-4
tp418
(I-4
I-4
I-4
I-4
I-4
I-2
I-2
I-2
I-2
I-2
I-2
I-2
I-2
I-2
I-4
I-4
I-4
I-4
I-4
tp419
(I-4
I-4
I-4
I-4
I-4
I-2
I-2
I-2
I-2
I-2
I-2
I-2
I-2
I-2
I-4
I-4
I-4
I-4
I-4
tp420
(I-4
I-4
I-4
I-4
I-4
I-2
I-2
I-2
I-2
I-2
I-2
I-2
I-2
I-2
I-4
I-4
I-4
I-4
I-4
tp421
(I-4
I-4
I-4
I-4
I-4
I-4
I-4
I-4
I-4
I-4
I-4
I-4
I-4
I-4
I-4
I-4
I-4
I-4
I-4
tp422
tp423
(I7
I9
tp424
I14
I19
tp425
g59
tp426
I0
s((((I-4
I-4
I-4
I-4
I-4
I-4
I-4
I-4
I-4
I-4
I-4
I-4
I-4
I-4
I-4
I-4
I-4
I-4
I-4
tp427
(I-4
I-4
I-4
I-4
I-4
I-2
I-2
I-2
I-4
I1
I-4
I-2
I-2
I-2
I-4
I-4
I-4
I-4
I-4
tp428
(I-4
I-4
I-4
I-4
I-4
I-2
I-2
I-2
I-4
I-4
I-4
I-2
I-2
I-2
I-4
I-4
I-4
I-4
I-4
tp429
(I-4
I-4
I-4
I-4
I-4
I-2
I-2
I-2
I-2
I-2
I-2
I-2
I-2
I-2
I-4
I-4
I-4
I-4
I-4
tp430
(I-4
I-4
I-4
I-4
I-4
I-2
I-2
I-2
I-2
I-2
I-2
I-2
I-2
I-2
I-4
I-4
I-4
I-4
I-4
tp431
(I-4
I-4
I-4
I-4
I-4
I-2
I-2
I-2
I-2
I-2
I-2
I-2
I-2
I-2
I-4
I-4
I-4
I-4
I-4
tp432
(I-4
I-4
I-4
I-4
I-4
I-2
I-2
I-2
I-2
I-2
I-2
I-2
I-2
I-2
I-4
I-4
I-4
I-4
I-4
tp433
(I-4
I-4
I-4
I-4
I-4
I-2
I-2
I-2
I-2
I-2
I-2
I-2
I-2
I-2
I-4
I-4
I-4
I-4
I-4
tp434
(I-4
I-4
I-4
I-4
I-4
I-2
I-2
I-2
I-2
I-2
I-2
I0
I-2
I-2
I-4
I-4
I-4
I-4
I-4
tp435
(I-4
I-4
I-4
I-4
I-4
I-2
I-2
I-2
I-2
I-2
I-2
I-2
I-2
I-2
I-4
I-4
I-4
I-4
I-4
tp436
(I-4
I-4
I-4
I-4
I-4
I-2
I-2
I-2
I-2
I-2
I-2
I-2
I-2
I-2
I-4
I-4
I-4
I-4
I-4
tp437
(I-4
I-4
I-4
I-4
I-4
I-2
I-2
I-2
I-2
I-2
I-2
I-2
I-2
I-2
I-4
I-4
I-4
I-4
I-4
tp438
(I-4
I-4
I-4
I-4
I-4
I-2
I-2
I-2
I-2
I-2
I-2
I-2
I-2
I-2
I-4
I-4
I-4
I-4
I-4
tp439
(I-4
I-4
I-4
I-4
I-4
I-4
I-4
I-4
I-4
I-4
I-4
I-4
I-4
I-4
I-4
I-4
I-4
I-4
I-4
tp440
tp441
(I8
I11
tp442
I14
I19
tp443
g59
tp444
F0.10972814897747618
s((((I-4
I-4
I-4
I-4
I-4
I-4
I-4
I-4
I-4
I-4
I-4
I-4
I-4
I-4
I-4
I-4
I-4
I-4
I-4
tp445
(I-4
I-4
I-4
I-4
I-4
I-2
I-2
I-2
I-4
I1
I-4
I-2
I-2
I-2
I-4
I-4
I-4
I-4
I-4
tp446
(I-4
I-4
I-4
I-4
I-4
I-2
I-2
I-2
I-4
I-4
I-4
I-2
I-2
I-2
I-4
I-4
I-4
I-4
I-4
tp447
(I-4
I-4
I-4
I-4
I-4
I-2
I-2
I-2
I-2
I-2
I-2
I-2
I-2
I-2
I-4
I-4
I-4
I-4
I-4
tp448
(I-4
I-4
I-4
I-4
I-4
I-2
I-2
I-2
I-2
I-2
I-2
I-2
I-2
I-2
I-4
I-4
I-4
I-4
I-4
tp449
(I-4
I-4
I-4
I-4
I-4
I-2
I-2
I-2
I-2
I-2
I-2
I-2
I-2
I-2
I-4
I-4
I-4
I-4
I-4
tp450
(I-4
I-4
I-4
I-4
I-4
I-2
I-2
I-2
I-2
I-2
I-2
I-2
I-2
I-2
I-4
I-4
I-4
I-4
I-4
tp451
(I-4
I-4
I-4
I-4
I-4
I-2
I-2
I-2
I-2
I-2
I-2
I0
I-2
I-2
I-4
I-4
I-4
I-4
I-4
tp452
(I-4
I-4
I-4
I-4
I-4
I-2
I-2
I-2
I-2
I-2
I-2
I-2
I-2
I-2
I-4
I-4
I-4
I-4
I-4
tp453
(I-4
I-4
I-4
I-4
I-4
I-2
I-2
I-2
I-2
I-2
I-2
I-2
I-2
I-2
I-4
I-4
I-4
I-4
I-4
tp454
(I-4
I-4
I-4
I-4
I-4
I-2
I-2
I-2
I-2
I-2
I-2
I-2
I-2
I-2
I-4
I-4
I-4
I-4
I-4
tp455
(I-4
I-4
I-4
I-4
I-4
I-2
I-2
I-2
I-2
I-2
I-2
I-2
I-2
I-2
I-4
I-4
I-4
I-4
I-4
tp456
(I-4
I-4
I-4
I-4
I-4
I-2
I-2
I-2
I-2
I-2
I-2
I-2
I-2
I-2
I-4
I-4
I-4
I-4
I-4
tp457
(I-4
I-4
I-4
I-4
I-4
I-4
I-4
I-4
I-4
I-4
I-4
I-4
I-4
I-4
I-4
I-4
I-4
I-4
I-4
tp458
tp459
(I7
I11
tp460
I14
I19
tp461
g78
tp462
F0.10039733199067463
s((((I-4
I-4
I-4
I-4
I-4
I-4
I-4
I-4
I-4
I-4
I-4
I-4
I-4
I-4
I-4
I-4
I-4
I-4
I-4
tp463
(I-4
I-4
I-4
I-4
I-4
I-2
I-2
I-2
I-4
I1
I-4
I-2
I-2
I-2
I-4
I-4
I-4
I-4
I-4
tp464
(I-4
I-4
I-4
I-4
I-4
I-2
I-2
I-2
I-4
I-4
I-4
I-2
I-2
I-2
I-4
I-4
I-4
I-4
I-4
tp465
(I-4
I-4
I-4
I-4
I-4
I-2
I-2
I-2
I-2
I-2
I-2
I-2
I-2
I-2
I-4
I-4
I-4
I-4
I-4
tp466
(I-4
I-4
I-4
I-4
I-4
I-2
I-2
I-2
I-2
I-2
I-2
I-2
I-2
I-2
I-4
I-4
I-4
I-4
I-4
tp467
(I-4
I-4
I-4
I-4
I-4
I-2
I-2
I-2
I-2
I-2
I-2
I-2
I-2
I-2
I-4
I-4
I-4
I-4
I-4
tp468
(I-4
I-4
I-4
I-4
I-4
I-2
I-2
I-2
I-2
I-2
I-2
I-2
I-2
I-2
I-4
I-4
I-4
I-4
I-4
tp469
(I-4
I-4
I-4
I-4
I-4
I-2
I-2
I-2
I-2
I-2
I-2
I-2
I-2
I-2
I-4
I-4
I-4
I-4
I-4
tp470
(I-4
I-4
I-4
I-4
I-4
I-2
I-2
I-2
I-2
I-2
I-2
I-2
I-2
I-2
I-4
I-4
I-4
I-4
I-4
tp471
(I-4
I-4
I-4
I-4
I-4
I-2
I-2
I-2
I-2
I-2
I-2
I-2
I-2
I-2
I-4
I-4
I-4
I-4
I-4
tp472
(I-4
I-4
I-4
I-4
I-4
I-2
I-2
I-2
I-2
I-2
I-2
I-2
I-2
I-2
I-4
I-4
I-4
I-4
I-4
tp473
(I-4
I-4
I-4
I-4
I-4
I-2
I-2
I-2
I-2
I-2
I-2
I-2
I-2
I-2
I-4
I-4
I-4
I-4
I-4
tp474
(I-4
I-4
I-4
I-4
I-4
I-2
I-2
I-2
I-2
I-2
I-2
I-2
I-2
I0
I-4
I-4
I-4
I-4
I-4
tp475
(I-4
I-4
I-4
I-4
I-4
I-4
I-4
I-4
I-4
I-4
I-4
I-4
I-4
I-4
I-4
I-4
I-4
I-4
I-4
tp476
tp477
(I12
I13
tp478
I14
I19
tp479
g59
tp480
F0.0
s(g20
S'w'
p481
tp482
F0.009752378203127868
s((((I-4
I-4
I-4
I-4
I-4
I-4
I-4
I-4
I-4
I-4
I-4
I-4
I-4
I-4
I-4
I-4
I-4
I-4
I-4
tp483
(I-4
I-4
I-4
I-4
I-4
I-2
I-2
I-2
I-4
I1
I-4
I-2
I-2
I-2
I-4
I-4
I-4
I-4
I-4
tp484
(I-4
I-4
I-4
I-4
I-4
I-2
I-2
I-2
I-4
I-4
I-4
I-2
I-2
I-2
I-4
I-4
I-4
I-4
I-4
tp485
(I-4
I-4
I-4
I-4
I-4
I-2
I-2
I-2
I-2
I-2
I-2
I-2
I-2
I-2
I-4
I-4
I-4
I-4
I-4
tp486
(I-4
I-2
I-4
I-4
I-4
I-2
I-2
I-2
I-2
I-2
I-2
I-2
I-2
I-2
I-4
I-4
I-4
I-4
I-4
tp487
(I-4
I-4
I-4
I-4
I-4
I-2
I-2
I-2
I-2
I-2
I-2
I-2
I-2
I-2
I-4
I-4
I-4
I-4
I-4
tp488
(I-4
I-4
I-4
I-4
I-4
I-2
I-2
I-2
I-2
I-2
I-2
I-2
I-2
I-2
I-4
I-4
I-4
I-4
I-4
tp489
(I-4
I-4
I-4
I-4
I-4
I-2
I-2
I-2
I-2
I-2
I-2
I0
I-2
I-2
I-4
I-4
I-4
I-4
I-4
tp490
(I-4
I-4
I-4
I-4
I-4
I-2
I-2
I-2
I-2
I-2
I-2
I-2
I-2
I-2
I-4
I-4
I-4
I-4
I-4
tp491
(I-4
I-4
I-4
I-4
I-4
I-2
I-2
I-2
I-2
I-2
I-2
I-2
I-2
I-2
I-4
I-4
I-4
I-4
I-4
tp492
(I-4
I-4
I-4
I-4
I-4
I-2
I-2
I-2
I-2
I-2
I-2
I-2
I-2
I-2
I-4
I-4
I-4
I-4
I-4
tp493
(I-4
I-4
I-4
I-4
I-4
I-2
I-2
I-2
I-2
I-2
I-2
I-2
I-2
I-2
I-4
I-4
I-4
I-4
I-4
tp494
(I-4
I-4
I-4
I-4
I-4
I-2
I-2
I-2
I-2
I-2
I-2
I-2
I-2
I-2
I-4
I-4
I-4
I-4
I-4
tp495
(I-4
I-4
I-4
I-4
I-4
I-4
I-4
I-4
I-4
I-4
I-4
I-4
I-4
I-4
I-4
I-4
I-4
I-4
I-4
tp496
tp497
(I7
I11
tp498
I14
I19
tp499
g135
tp500
F0.5
s(g20
g280
tp501
F0.09888001943097297
s(g334
g40
tp502
I0
s((((I-4
I-4
I-4
I-4
I-4
I-4
I-4
I-4
I-4
I-4
I-4
I-4
I-4
I-4
I-4
I-4
I-4
I-4
I-4
tp503
(I-4
I-4
I-4
I-4
I-4
I-2
I-2
I-2
I-4
I1
I-4
I-2
I-2
I-2
I-4
I-4
I-4
I-4
I-4
tp504
(I-4
I-4
I-4
I-4
I-4
I-2
I-2
I-2
I-4
I-4
I-4
I-2
I-2
I-2
I-4
I-4
I-4
I-4
I-4
tp505
(I-4
I-4
I-4
I-4
I-4
I-2
I-2
I-2
I-2
I-2
I-2
I-2
I-2
I-2
I-4
I-4
I-4
I-4
I-4
tp506
(I-4
I-4
I-4
I-4
I-4
I-2
I-2
I-2
I-2
I-2
I0
I-2
I-2
I-2
I-4
I-4
I-4
I-4
I-4
tp507
(I-4
I-4
I-4
I-4
I-4
I-2
I-2
I-2
I-2
I-2
I-2
I-2
I-2
I-2
I-4
I-4
I-4
I-4
I-4
tp508
(I-4
I-4
I-4
I-4
I-4
I-2
I-2
I-2
I-2
I-2
I-2
I-2
I-2
I-2
I-4
I-4
I-4
I-4
I-4
tp509
(I-4
I-4
I-4
I-4
I-4
I-2
I-2
I-2
I-2
I-2
I-2
I-2
I-2
I-2
I-4
I-4
I-4
I-4
I-4
tp510
(I-4
I-4
I-4
I-4
I-4
I-2
I-2
I-2
I-2
I-2
I-2
I-2
I-2
I-2
I-4
I-4
I-4
I-4
I-4
tp511
(I-4
I-4
I-4
I-4
I-4
I-2
I-2
I-2
I-2
I-2
I-2
I-2
I-2
I-2
I-4
I-4
I-4
I-4
I-4
tp512
(I-4
I-4
I-4
I-4
I-4
I-2
I-2
I-2
I-2
I-2
I-2
I-2
I-2
I-2
I-4
I-4
I-4
I-4
I-4
tp513
(I-4
I-4
I-4
I-4
I-4
I-2
I-2
I-2
I-2
I-2
I-2
I-2
I-2
I-2
I-4
I-4
I-4
I-4
I-4
tp514
(I-4
I-4
I-4
I-4
I-4
I-2
I-2
I-2
I-2
I-2
I-2
I-2
I-2
I-2
I-4
I-4
I-4
I-4
I-4
tp515
(I-4
I-4
I-4
I-4
I-4
I-4
I-4
I-4
I-4
I-4
I-4
I-4
I-4
I-4
I-4
I-4
I-4
I-4
I-4
tp516
tp517
(I4
I10
tp518
I14
I19
tp519
g481
tp520
I0
s((((I-4
I-4
I-4
I-4
I-4
I-4
I-4
I-4
I-4
I-4
I-4
I-4
I-4
I-4
I-4
I-4
I-4
I-4
I-4
tp521
(I-4
I-4
I-4
I-4
I-4
I-2
I-2
I-2
I-4
I1
I-4
I-2
I-2
I-2
I-4
I-4
I-4
I-4
I-4
tp522
(I-4
I-4
I-4
I-4
I-4
I-2
I-2
I-2
I-4
I-4
I-4
I-2
I-2
I-2
I-4
I-4
I-4
I-4
I-4
tp523
(I-4
I-4
I-2
I-4
I-4
I-2
I-2
I-2
I-2
I-2
I-2
I-2
I-2
I-2
I-4
I-4
I-4
I-4
I-4
tp524
(I-4
I-2
I-4
I-4
I-4
I-2
I-2
I-2
I-2
I-2
I-2
I-2
I-2
I-2
I-4
I-4
I-4
I-4
I-4
tp525
(I-4
I-2
I-4
I-4
I-4
I-2
I-2
I-2
I-2
I-2
I-2
I-2
I-2
I-2
I-4
I-4
I-4
I-4
I-4
tp526
(I-4
I-4
I-4
I-4
I-4
I-2
I-2
I-2
I-2
I-2
I-2
I-2
I-2
I-2
I-4
I-4
I-4
I-4
I-4
tp527
(I-4
I-4
I-4
I-4
I-4
I-2
I-2
I-2
I-2
I-2
I-2
I-2
I-2
I-2
I-4
I-4
I-4
I-4
I-4
tp528
(I-4
I-4
I-4
I-4
I-4
I-2
I-2
I-2
I-2
I-2
I-2
I-2
I-2
I-2
I-4
I-4
I-4
I-4
I-4
tp529
(I-4
I-4
I-4
I-4
I-4
I-2
I-2
I-2
I-2
I-2
I-2
I-2
I-2
I-2
I-4
I-4
I-4
I-4
I-4
tp530
(I-4
I-4
I-4
I-4
I-4
I-2
I-2
I-2
I-2
I-2
I-2
I-2
I0
I-2
I-4
I-4
I-4
I-4
I-4
tp531
(I-4
I-4
I-4
I-4
I-4
I-2
I-2
I-2
I-2
I-2
I-2
I-2
I-2
I-2
I-4
I-4
I-4
I-4
I-4
tp532
(I-4
I-4
I-4
I-4
I-4
I-2
I-2
I-2
I-2
I-2
I-2
I-2
I-2
I-2
I-4
I-4
I-4
I-4
I-4
tp533
(I-4
I-4
I-4
I-4
I-4
I-4
I-4
I-4
I-4
I-4
I-4
I-4
I-4
I-4
I-4
I-4
I-4
I-4
I-4
tp534
tp535
(I10
I12
tp536
I14
I19
tp537
g135
tp538
I0
s((((I-4
I-4
I-4
I-4
I-4
I-4
I-4
I-4
I-4
I-4
I-4
I-4
I-4
I-4
I-4
I-4
I-4
I-4
I-4
tp539
(I-4
I-4
I-4
I-4
I-4
I-2
I-2
I-2
I-4
I1
I-4
I-2
I-2
I-2
I-4
I-4
I-4
I-4
I-4
tp540
(I-4
I-4
I-4
I-4
I-4
I-2
I-2
I-2
I-4
I-4
I-4
I-2
I-2
I-2
I-4
I-4
I-4
I-4
I-4
tp541
(I-4
I-4
I-2
I-4
I-4
I-2
I-2
I-2
I-2
I-2
I-2
I-2
I-2
I-2
I-4
I-4
I-4
I-4
I-4
tp542
(I-4
I-2
I-4
I-4
I-4
I-2
I-2
I-2
I-2
I-2
I-2
I-2
I-2
I-2
I-4
I-4
I-4
I-4
I-4
tp543
(I-4
I-2
I-4
I-4
I-4
I-2
I-2
I-2
I-2
I-2
I-2
I-2
I-2
I-2
I-4
I-4
I-4
I-4
I-4
tp544
(I-4
I-4
I-4
I-4
I-4
I-2
I-2
I-2
I-2
I-2
I-2
I-2
I-2
I-2
I-4
I-4
I-4
I-4
I-4
tp545
(I-4
I-4
I-4
I-4
I-4
I-2
I-2
I-2
I-2
I-2
I-2
I-2
I-2
I-2
I-4
I-4
I-4
I-4
I-4
tp546
(I-4
I-4
I-4
I-4
I-4
I-2
I-2
I-2
I-2
I-2
I-2
I-2
I-2
I-2
I-4
I-4
I-4
I-4
I-4
tp547
(I-4
I-4
I-4
I-4
I-4
I-2
I-2
I-2
I-2
I-2
I-2
I-2
I-2
I-2
I-4
I-4
I-4
I-4
I-4
tp548
(I-4
I-4
I-4
I-4
I-4
I-2
I-2
I-2
I-2
I-2
I-2
I-2
I-2
I-2
I-4
I-4
I-4
I-4
I-4
tp549
(I-4
I-4
I-4
I-4
I-4
I-2
I-2
I-2
I-2
I-2
I0
I-2
I-2
I-2
I-4
I-4
I-4
I-4
I-4
tp550
(I-4
I-4
I-4
I-4
I-4
I-2
I-2
I-2
I-2
I-2
I-2
I-2
I-2
I-2
I-4
I-4
I-4
I-4
I-4
tp551
(I-4
I-4
I-4
I-4
I-4
I-4
I-4
I-4
I-4
I-4
I-4
I-4
I-4
I-4
I-4
I-4
I-4
I-4
I-4
tp552
tp553
(I11
I10
tp554
I14
I19
tp555
g135
tp556
F1.009222746093799
s(g407
g40
tp557
I0
s(g407
g78
tp558
F0.0008956820628050748
s(g225
g78
tp559
I0
s(g352
g78
tp560
F0.10078867689483091
s(g279
g116
tp561
I0
s(g261
g135
tp562
I0
s(g519
g280
tp563
F0.09941482543945312
s((((I-4
I-4
I-4
I-4
I-4
I-4
I-4
I-4
I-4
I-4
I-4
I-4
I-4
I-4
I-4
I-4
I-4
I-4
I-4
tp564
(I-4
I-4
I-4
I-4
I-4
I-2
I-2
I-2
I-4
I1
I-4
I-2
I-2
I-2
I-4
I-4
I-4
I-4
I-4
tp565
(I-4
I-4
I-4
I-4
I-4
I-2
I-2
I-2
I-4
I-4
I-4
I-2
I-2
I-2
I-4
I-4
I-4
I-4
I-4
tp566
(I-4
I-4
I-4
I-4
I-4
I-2
I-2
I-2
I-2
I-2
I-2
I-2
I-2
I-2
I-4
I-4
I-4
I-4
I-4
tp567
(I-4
I-4
I-4
I-4
I-4
I-2
I-2
I-2
I-2
I-2
I-2
I-2
I-2
I-2
I-4
I-4
I-4
I-4
I-4
tp568
(I-4
I-4
I-4
I-4
I-4
I-2
I-2
I-2
I-2
I-2
I-2
I-2
I0
I-2
I-4
I-4
I-4
I-4
I-4
tp569
(I-4
I-4
I-4
I-4
I-4
I-2
I-2
I-2
I-2
I-2
I-2
I-2
I-2
I-2
I-4
I-4
I-4
I-4
I-4
tp570
(I-4
I-4
I-4
I-4
I-4
I-2
I-2
I-2
I-2
I-2
I-2
I-2
I-2
I-2
I-4
I-4
I-4
I-4
I-4
tp571
(I-4
I-4
I-4
I-4
I-4
I-2
I-2
I-2
I-2
I-2
I-2
I-2
I-2
I-2
I-4
I-4
I-4
I-4
I-4
tp572
(I-4
I-4
I-4
I-4
I-4
I-2
I-2
I-2
I-2
I-2
I-2
I-2
I-2
I-2
I-4
I-4
I-4
I-4
I-4
tp573
(I-4
I-4
I-4
I-4
I-4
I-2
I-2
I-2
I-2
I-2
I-2
I-2
I-2
I-2
I-4
I-4
I-4
I-4
I-4
tp574
(I-4
I-4
I-4
I-4
I-4
I-2
I-2
I-2
I-2
I-2
I-2
I-2
I-2
I-2
I-4
I-4
I-4
I-4
I-4
tp575
(I-4
I-4
I-4
I-4
I-4
I-2
I-2
I-2
I-2
I-2
I-2
I-2
I-2
I-2
I-4
I-4
I-4
I-4
I-4
tp576
(I-4
I-4
I-4
I-4
I-4
I-4
I-4
I-4
I-4
I-4
I-4
I-4
I-4
I-4
I-4
I-4
I-4
I-4
I-4
tp577
tp578
(I5
I12
tp579
I14
I19
tp580
g40
tp581
F0.0007013330078125
s((((I-4
I-4
I-4
I-4
I-4
I-4
I-4
I-4
I-4
I-4
I-4
I-4
I-4
I-4
I-4
I-4
I-4
I-4
I-4
tp582
(I-4
I-4
I-4
I-4
I-4
I-2
I-2
I-2
I-4
I1
I-4
I-2
I-2
I-2
I-4
I-4
I-4
I-4
I-4
tp583
(I-4
I-4
I-4
I-4
I-4
I-2
I-2
I-2
I-4
I-4
I-4
I-2
I-2
I-2
I-4
I-4
I-4
I-4
I-4
tp584
(I-4
I-4
I-4
I-4
I-4
I-2
I-2
I-2
I-2
I-2
I-2
I-2
I-2
I-2
I-4
I-4
I-4
I-4
I-4
tp585
(I-4
I-4
I-4
I-4
I-4
I-2
I-2
I-2
I-2
I-2
I-2
I-2
I-2
I-2
I-4
I-4
I-4
I-4
I-4
tp586
(I-4
I-4
I-4
I-4
I-4
I-2
I-2
I-2
I-2
I-2
I-2
I-2
I-2
I-2
I-4
I-4
I-4
I-4
I-4
tp587
(I-4
I-4
I-4
I-4
I-4
I-2
I-2
I-2
I-2
I-2
I-2
I0
I-2
I-2
I-4
I-4
I-4
I-4
I-4
tp588
(I-4
I-4
I-4
I-4
I-4
I-2
I-2
I-2
I-2
I-2
I-2
I-2
I-2
I-2
I-4
I-4
I-4
I-4
I-4
tp589
(I-4
I-4
I-4
I-4
I-4
I-2
I-2
I-2
I-2
I-2
I-2
I-2
I-2
I-2
I-4
I-4
I-4
I-4
I-4
tp590
(I-4
I-4
I-4
I-4
I-4
I-2
I-2
I-2
I-2
I-2
I-2
I-2
I-2
I-2
I-4
I-4
I-4
I-4
I-4
tp591
(I-4
I-4
I-4
I-4
I-4
I-2
I-2
I-2
I-2
I-2
I-2
I-2
I-2
I-2
I-4
I-4
I-4
I-4
I-4
tp592
(I-4
I-4
I-4
I-4
I-4
I-2
I-2
I-2
I-2
I-2
I-2
I-2
I-2
I-2
I-4
I-4
I-4
I-4
I-4
tp593
(I-4
I-4
I-4
I-4
I-4
I-2
I-2
I-2
I-2
I-2
I-2
I-2
I-2
I-2
I-4
I-4
I-4
I-4
I-4
tp594
(I-4
I-4
I-4
I-4
I-4
I-4
I-4
I-4
I-4
I-4
I-4
I-4
I-4
I-4
I-4
I-4
I-4
I-4
I-4
tp595
tp596
(I6
I11
tp597
I14
I19
tp598
g280
tp599
I0
s((((I-4
I-4
I-4
I-4
I-4
I-4
I-4
I-4
I-4
I-4
I-4
I-4
I-4
I-4
I-4
I-4
I-4
I-4
I-4
tp600
(I-4
I-4
I-4
I-4
I-4
I-2
I-2
I-2
I-4
I1
I-4
I-2
I-2
I-2
I-4
I-4
I-4
I-4
I-4
tp601
(I-4
I-4
I-4
I-4
I-4
I-2
I-2
I-2
I-4
I-4
I-4
I-2
I-2
I-2
I-4
I-4
I-4
I-4
I-4
tp602
(I-4
I-4
I-2
I-4
I-4
I-2
I-2
I-2
I-2
I-2
I-2
I-2
I-2
I-2
I-4
I-4
I-4
I-4
I-4
tp603
(I-4
I-2
I-4
I-4
I-4
I-2
I-2
I-2
I-2
I-2
I-2
I-2
I-2
I-2
I-4
I-4
I-4
I-4
I-4
tp604
(I-2
I-2
I-4
I-4
I-4
I-2
I-2
I-2
I-2
I-2
I-2
I-2
I-2
I-2
I-4
I-4
I-4
I-4
I-4
tp605
(I-4
I-4
I-4
I-4
I-4
I-2
I-2
I-2
I-2
I-2
I-2
I-2
I-2
I-2
I-4
I-4
I-4
I-4
I-4
tp606
(I-4
I-4
I-4
I-4
I-4
I-2
I-2
I-2
I-2
I-2
I-2
I-2
I-2
I-2
I-4
I-4
I-4
I-4
I-4
tp607
(I-4
I-4
I-4
I-4
I-4
I-2
I-2
I-2
I-2
I-2
I-2
I-2
I-2
I-2
I-4
I-4
I-4
I-4
I-4
tp608
(I-4
I-4
I-4
I-4
I-4
I-2
I-2
I-2
I-2
I-2
I-2
I-2
I-2
I-2
I-4
I-4
I-4
I-4
I-4
tp609
(I-4
I-4
I-4
I-4
I-4
I-2
I-2
I-2
I-2
I-2
I-2
I-2
I-2
I-2
I-4
I-4
I-4
I-4
I-4
tp610
(I-4
I-4
I-4
I-4
I-4
I-2
I-2
I-2
I-2
I-2
I-2
I-2
I-2
I-2
I-4
I-4
I-4
I-4
I-4
tp611
(I-4
I-4
I-4
I-4
I-4
I-2
I-2
I-2
I-2
I-2
I-2
I-2
I-2
I0
I-4
I-4
I-4
I-4
I-4
tp612
(I-4
I-4
I-4
I-4
I-4
I-4
I-4
I-4
I-4
I-4
I-4
I-4
I-4
I-4
I-4
I-4
I-4
I-4
I-4
tp613
tp614
(I12
I13
tp615
I14
I19
tp616
g135
tp617
F0.9990882421875
s((((I-4
I-4
I-4
I-4
I-4
I-4
I-4
I-4
I-4
I-4
I-4
I-4
I-4
I-4
I-4
I-4
I-4
I-4
I-4
tp618
(I-4
I-4
I-4
I-4
I-4
I-2
I-2
I-2
I-4
I1
I-4
I-2
I-2
I-2
I-4
I-4
I-4
I-4
I-4
tp619
(I-4
I-4
I-4
I-4
I-4
I-2
I-2
I-2
I-4
I-4
I-4
I-2
I-2
I-2
I-4
I-4
I-4
I-4
I-4
tp620
(I-4
I-4
I-4
I-4
I-4
I-2
I-2
I-2
I-2
I-2
I-2
I-2
I-2
I-2
I-4
I-4
I-4
I-4
I-4
tp621
(I-4
I-2
I-4
I-4
I-4
I-2
I-2
I-2
I-2
I-2
I-2
I-2
I-2
I-2
I-4
I-4
I-4
I-4
I-4
tp622
(I-4
I-4
I-4
I-4
I-4
I-2
I-2
I-2
I-2
I-2
I-2
I-2
I-2
I-2
I-4
I-4
I-4
I-4
I-4
tp623
(I-4
I-4
I-4
I-4
I-4
I-2
I-2
I-2
I-2
I-2
I-2
I0
I-2
I-2
I-4
I-4
I-4
I-4
I-4
tp624
(I-4
I-4
I-4
I-4
I-4
I-2
I-2
I-2
I-2
I-2
I-2
I-2
I-2
I-2
I-4
I-4
I-4
I-4
I-4
tp625
(I-4
I-4
I-4
I-4
I-4
I-2
I-2
I-2
I-2
I-2
I-2
I-2
I-2
I-2
I-4
I-4
I-4
I-4
I-4
tp626
(I-4
I-4
I-4
I-4
I-4
I-2
I-2
I-2
I-2
I-2
I-2
I-2
I-2
I-2
I-4
I-4
I-4
I-4
I-4
tp627
(I-4
I-4
I-4
I-4
I-4
I-2
I-2
I-2
I-2
I-2
I-2
I-2
I-2
I-2
I-4
I-4
I-4
I-4
I-4
tp628
(I-4
I-4
I-4
I-4
I-4
I-2
I-2
I-2
I-2
I-2
I-2
I-2
I-2
I-2
I-4
I-4
I-4
I-4
I-4
tp629
(I-4
I-4
I-4
I-4
I-4
I-2
I-2
I-2
I-2
I-2
I-2
I-2
I-2
I-2
I-4
I-4
I-4
I-4
I-4
tp630
(I-4
I-4
I-4
I-4
I-4
I-4
I-4
I-4
I-4
I-4
I-4
I-4
I-4
I-4
I-4
I-4
I-4
I-4
I-4
tp631
tp632
(I6
I11
tp633
I14
I19
tp634
g78
tp635
I0
s(g370
g59
tp636
F0.11035597559809687
s(g598
g481
tp637
I0
s(g225
g135
tp638
I0
s((((I-4
I-4
I-4
I-4
I-4
I-4
I-4
I-4
I-4
I-4
I-4
I-4
I-4
I-4
I-4
I-4
I-4
I-4
I-4
tp639
(I-4
I-4
I-4
I-4
I-4
I-2
I-2
I-2
I-4
I1
I-4
I-2
I-2
I-2
I-4
I-4
I-4
I-4
I-4
tp640
(I-4
I-4
I-4
I-4
I-4
I-2
I-2
I-2
I-4
I-4
I-4
I-2
I-2
I-2
I-4
I-4
I-4
I-4
I-4
tp641
(I-4
I-4
I-4
I-4
I-4
I-2
I-2
I-2
I-2
I-2
I-2
I-2
I-2
I-2
I-4
I-4
I-4
I-4
I-4
tp642
(I-4
I-4
I-4
I-4
I-4
I-2
I-2
I-2
I-2
I-2
I-2
I-2
I-2
I-2
I-4
I-4
I-4
I-4
I-4
tp643
(I-4
I-4
I-4
I-4
I-4
I-2
I-2
I-2
I-2
I-2
I-2
I-2
I-2
I0
I-4
I-4
I-4
I-4
I-4
tp644
(I-4
I-4
I-4
I-4
I-4
I-2
I-2
I-2
I-2
I-2
I-2
I-2
I-2
I-2
I-4
I-4
I-4
I-4
I-4
tp645
(I-4
I-4
I-4
I-4
I-4
I-2
I-2
I-2
I-2
I-2
I-2
I-2
I-2
I-2
I-4
I-4
I-4
I-4
I-4
tp646
(I-4
I-4
I-4
I-4
I-4
I-2
I-2
I-2
I-2
I-2
I-2
I-2
I-2
I-2
I-4
I-4
I-4
I-4
I-4
tp647
(I-4
I-4
I-4
I-4
I-4
I-2
I-2
I-2
I-2
I-2
I-2
I-2
I-2
I-2
I-4
I-4
I-4
I-4
I-4
tp648
(I-4
I-4
I-4
I-4
I-4
I-2
I-2
I-2
I-2
I-2
I-2
I-2
I-2
I-2
I-4
I-4
I-4
I-4
I-4
tp649
(I-4
I-4
I-4
I-4
I-4
I-2
I-2
I-2
I-2
I-2
I-2
I-2
I-2
I-2
I-4
I-4
I-4
I-4
I-4
tp650
(I-4
I-4
I-4
I-4
I-4
I-2
I-2
I-2
I-2
I-2
I-2
I-2
I-2
I-2
I-4
I-4
I-4
I-4
I-4
tp651
(I-4
I-4
I-4
I-4
I-4
I-4
I-4
I-4
I-4
I-4
I-4
I-4
I-4
I-4
I-4
I-4
I-4
I-4
I-4
tp652
tp653
(I5
I13
tp654
I14
I19
tp655
g116
tp656
I0
s((((I-4
I-4
I-4
I-4
I-4
I-4
I-4
I-4
I-4
I-4
I-4
I-4
I-4
I-4
I-4
I-4
I-4
I-4
I-4
tp657
(I-4
I-4
I-4
I-4
I-4
I-2
I-2
I-2
I-4
I1
I-4
I-2
I-2
I-2
I-4
I-4
I-4
I-4
I-4
tp658
(I-4
I-4
I-4
I-4
I-4
I-2
I-2
I-2
I-4
I-4
I-4
I-2
I-2
I-2
I-4
I-4
I-4
I-4
I-4
tp659
(I-4
I-4
I-2
I-4
I-4
I-2
I-2
I-2
I-2
I-2
I-2
I-2
I-2
I-2
I-4
I-4
I-4
I-4
I-4
tp660
(I-4
I-2
I-4
I-4
I-4
I-2
I-2
I-2
I-2
I-2
I-2
I-2
I-2
I-2
I-4
I-4
I-4
I-4
I-4
tp661
(I-4
I-2
I-4
I-4
I-4
I-2
I-2
I-2
I-2
I-2
I-2
I-2
I-2
I-2
I-4
I-4
I-4
I-4
I-4
tp662
(I-4
I-4
I-4
I-4
I-4
I-2
I-2
I-2
I-2
I-2
I-2
I-2
I-2
I-2
I-4
I-4
I-4
I-4
I-4
tp663
(I-4
I-4
I-4
I-4
I-4
I-2
I-2
I-2
I-2
I-2
I-2
I-2
I-2
I-2
I-4
I-4
I-4
I-4
I-4
tp664
(I-4
I-4
I-4
I-4
I-4
I-2
I-2
I-2
I-2
I-2
I-2
I-2
I-2
I-2
I-4
I-4
I-4
I-4
I-4
tp665
(I-4
I-4
I-4
I-4
I-4
I-2
I-2
I-2
I-2
I-2
I-2
I-2
I-2
I-2
I-4
I-4
I-4
I-4
I-4
tp666
(I-4
I-4
I-4
I-4
I-4
I-2
I-2
I-2
I-2
I-2
I0
I-2
I-2
I-2
I-4
I-4
I-4
I-4
I-4
tp667
(I-4
I-4
I-4
I-4
I-4
I-2
I-2
I-2
I-2
I-2
I-2
I-2
I-2
I-2
I-4
I-4
I-4
I-4
I-4
tp668
(I-4
I-4
I-4
I-4
I-4
I-2
I-2
I-2
I-2
I-2
I-2
I-2
I-2
I-2
I-4
I-4
I-4
I-4
I-4
tp669
(I-4
I-4
I-4
I-4
I-4
I-4
I-4
I-4
I-4
I-4
I-4
I-4
I-4
I-4
I-4
I-4
I-4
I-4
I-4
tp670
tp671
(I10
I10
tp672
I14
I19
tp673
g59
tp674
I0
s(g461
g59
tp675
F0.11067919185757814
s(g77
g59
tp676
F0.0
s((((I-4
I-4
I-4
I-4
I-4
I-4
I-4
I-4
I-4
I-4
I-4
I-4
I-4
I-4
I-4
I-4
I-4
I-4
I-4
tp677
(I-4
I-4
I-4
I-4
I-4
I-2
I-2
I-2
I-4
I1
I-4
I-2
I-2
I-2
I-4
I-4
I-4
I-4
I-4
tp678
(I-4
I-4
I-4
I-4
I-4
I-2
I-2
I-2
I-4
I-4
I-4
I-2
I-2
I-2
I-4
I-4
I-4
I-4
I-4
tp679
(I-4
I-4
I-2
I-4
I-4
I-2
I-2
I-2
I-2
I-2
I-2
I-2
I-2
I-2
I-4
I-4
I-4
I-4
I-4
tp680
(I-4
I-2
I-4
I-4
I-4
I-2
I-2
I-2
I-2
I-2
I-2
I-2
I-2
I-2
I-4
I-4
I-4
I-4
I-4
tp681
(I-4
I-2
I-4
I-4
I-4
I-2
I-2
I-2
I-2
I-2
I-2
I-2
I-2
I-2
I-4
I-4
I-4
I-4
I-4
tp682
(I-4
I-4
I-4
I-4
I-4
I-2
I-2
I-2
I-2
I-2
I-2
I-2
I-2
I-2
I-4
I-4
I-4
I-4
I-4
tp683
(I-4
I-4
I-4
I-4
I-4
I-2
I-2
I-2
I-2
I-2
I-2
I-2
I-2
I-2
I-4
I-4
I-4
I-4
I-4
tp684
(I-4
I-4
I-4
I-4
I-4
I-2
I-2
I-2
I-2
I-2
I-2
I-2
I-2
I-2
I-4
I-4
I-4
I-4
I-4
tp685
(I-4
I-4
I-4
I-4
I-4
I-2
I-2
I-2
I-2
I-2
I-2
I-2
I-2
I-2
I-4
I-4
I-4
I-4
I-4
tp686
(I-4
I-4
I-4
I-4
I-4
I-2
I-2
I-2
I-2
I-2
I-2
I0
I-2
I-2
I-4
I-4
I-4
I-4
I-4
tp687
(I-4
I-4
I-4
I-4
I-4
I-2
I-2
I-2
I-2
I-2
I-2
I-2
I-2
I-2
I-4
I-4
I-4
I-4
I-4
tp688
(I-4
I-4
I-4
I-4
I-4
I-2
I-2
I-2
I-2
I-2
I-2
I-2
I-2
I-2
I-4
I-4
I-4
I-4
I-4
tp689
(I-4
I-4
I-4
I-4
I-4
I-4
I-4
I-4
I-4
I-4
I-4
I-4
I-4
I-4
I-4
I-4
I-4
I-4
I-4
tp690
tp691
(I10
I11
tp692
I14
I19
tp693
g78
tp694
F0.0
s((((I-4
I-4
I-4
I-4
I-4
I-4
I-4
I-4
I-4
I-4
I-4
I-4
I-4
I-4
I-4
I-4
I-4
I-4
I-4
tp695
(I-4
I-4
I-4
I-4
I-4
I-2
I-2
I-2
I-4
I1
I-4
I-2
I-2
I-2
I-4
I-4
I-4
I-4
I-4
tp696
(I-4
I-4
I-4
I-4
I-4
I-2
I-2
I-2
I-4
I-4
I-4
I-2
I-2
I-2
I-4
I-4
I-4
I-4
I-4
tp697
(I-4
I-4
I-4
I-4
I-4
I-2
I-2
I-2
I-2
I-2
I-2
I-2
I-2
I-2
I-4
I-4
I-4
I-4
I-4
tp698
(I-4
I-2
I-4
I-4
I-4
I-2
I-2
I-2
I-2
I-2
I-2
I-2
I-2
I-2
I-4
I-4
I-4
I-4
I-4
tp699
(I-4
I-4
I-4
I-4
I-4
I-2
I-2
I-2
I-2
I-2
I-2
I-2
I-2
I-2
I-4
I-4
I-4
I-4
I-4
tp700
(I-4
I-4
I-4
I-4
I-4
I-2
I-2
I-2
I-2
I-2
I-2
I-2
I-2
I-2
I-4
I-4
I-4
I-4
I-4
tp701
(I-4
I-4
I-4
I-4
I-4
I-2
I-2
I-2
I-2
I-2
I-2
I-2
I-2
I-2
I-4
I-4
I-4
I-4
I-4
tp702
(I-4
I-4
I-4
I-4
I-4
I-2
I-2
I-2
I-2
I-2
I-2
I-2
I-2
I-2
I-4
I-4
I-4
I-4
I-4
tp703
(I-4
I-4
I-4
I-4
I-4
I-2
I-2
I-2
I-2
I-2
I0
I-2
I-2
I-2
I-4
I-4
I-4
I-4
I-4
tp704
(I-4
I-4
I-4
I-4
I-4
I-2
I-2
I-2
I-2
I-2
I-2
I-2
I-2
I-2
I-4
I-4
I-4
I-4
I-4
tp705
(I-4
I-4
I-4
I-4
I-4
I-2
I-2
I-2
I-2
I-2
I-2
I-2
I-2
I-2
I-4
I-4
I-4
I-4
I-4
tp706
(I-4
I-4
I-4
I-4
I-4
I-2
I-2
I-2
I-2
I-2
I-2
I-2
I-2
I-2
I-4
I-4
I-4
I-4
I-4
tp707
(I-4
I-4
I-4
I-4
I-4
I-4
I-4
I-4
I-4
I-4
I-4
I-4
I-4
I-4
I-4
I-4
I-4
I-4
I-4
tp708
tp709
(I9
I10
tp710
I14
I19
tp711
g135
tp712
F0.75125
s((((I-2
I-4
I-4
I-4
I-4
I-4
I-4
I-4
I-4
I-4
I-4
I-4
I-4
I-4
I-4
I-4
I-4
I-4
I-4
tp713
(I-2
I-2
I-4
I-4
I-4
I-2
I-2
I-2
I-4
I1
I-4
I-2
I-2
I-2
I-4
I-4
I-4
I-4
I-2
tp714
(I-2
I-2
I-4
I-4
I-4
I-2
I-2
I-2
I-4
I-4
I-4
I-2
I-2
I-2
I-4
I-4
I-4
I-4
I-2
tp715
(I-2
I-2
I-2
I-4
I-4
I-2
I-2
I-2
I-2
I-2
I-2
I-2
I-2
I-2
I-4
I-4
I-4
I-2
I-2
tp716
(I-2
I-2
I-4
I-4
I-4
I-2
I-2
I-2
I-2
I-2
I-2
I-2
I-2
I-2
I-4
I-4
I-4
I-2
I-2
tp717
(I-2
I-2
I-4
I-4
I-4
I-2
I-2
I-2
I-2
I-2
I-2
I-2
I-2
I-2
I-4
I-4
I-4
I-2
I-2
tp718
(I-2
I-4
I-4
I-4
I-4
I-2
I-2
I-2
I-2
I-2
I-2
I-2
I-2
I-2
I-4
I-4
I-4
I-4
I-2
tp719
(I-2
I-4
I-4
I-4
I-4
I-2
I-2
I-2
I-2
I-2
I-2
I-2
I-2
I-2
I-4
I-4
I-4
I-4
I-2
tp720
(I-2
I-4
I-4
I-4
I-4
I-2
I-2
I-2
I-2
I-2
I-2
I-2
I-2
I-2
I-4
I-4
I-4
I-4
I-4
tp721
(I-2
I-4
I-4
I-4
I-4
I-2
I-2
I-2
I-2
I-2
I-2
I-2
I-2
I-2
I-4
I-4
I-4
I-4
I-4
tp722
(I-2
I-4
I-4
I-4
I-4
I-2
I-2
I-2
I-2
I-2
I-2
I-2
I-2
I-2
I-4
I-4
I-4
I-4
I-4
tp723
(I-2
I-4
I-4
I-4
I-4
I-2
I-2
I-2
I-2
I-2
I0
I-2
I-2
I-2
I-4
I-4
I-4
I-4
I-4
tp724
(I-2
I-4
I-4
I-4
I-4
I-2
I-2
I-2
I-2
I-2
I-2
I-2
I-2
I-2
I-4
I-4
I-4
I-4
I-4
tp725
(I-2
I-4
I-4
I-4
I-4
I-4
I-4
I-4
I-4
I-4
I-4
I-4
I-4
I-4
I-4
I-4
I-4
I-4
I-4
tp726
tp727
(I11
I10
tp728
I14
I19
tp729
g135
tp730
I0
s((((I-4
I-4
I-4
I-4
I-4
I-4
I-4
I-4
I-4
I-4
I-4
I-4
I-4
I-4
I-4
I-4
I-4
I-4
I-4
tp731
(I-4
I-4
I-4
I-4
I-4
I-2
I-2
I-2
I-4
I1
I-4
I-2
I-2
I-2
I-4
I-4
I-4
I-4
I-4
tp732
(I-4
I-4
I-4
I-4
I-4
I-2
I-2
I-2
I-4
I-4
I-4
I-2
I-2
I-2
I-4
I-4
I-4
I-4
I-4
tp733
(I-4
I-4
I-4
I-4
I-4
I-2
I-2
I-2
I-2
I-2
I-2
I-2
I-2
I-2
I-4
I-4
I-4
I-4
I-4
tp734
(I-4
I-2
I-4
I-4
I-4
I-2
I-2
I-2
I-2
I-2
I-2
I-2
I-2
I-2
I-4
I-4
I-4
I-4
I-4
tp735
(I-4
I-4
I-4
I-4
I-4
I-2
I-2
I-2
I-2
I-2
I-2
I-2
I-2
I-2
I-4
I-4
I-4
I-4
I-4
tp736
(I-4
I-4
I-4
I-4
I-4
I-2
I-2
I-2
I-2
I-2
I-2
I-2
I-2
I-2
I-4
I-4
I-4
I-4
I-4
tp737
(I-4
I-4
I-4
I-4
I-4
I-2
I-2
I-2
I-2
I-2
I-2
I-2
I-2
I-2
I-4
I-4
I-4
I-4
I-4
tp738
(I-4
I-4
I-4
I-4
I-4
I-2
I-2
I-2
I-2
I-2
I0
I-2
I-2
I-2
I-4
I-4
I-4
I-4
I-4
tp739
(I-4
I-4
I-4
I-4
I-4
I-2
I-2
I-2
I-2
I-2
I-2
I-2
I-2
I-2
I-4
I-4
I-4
I-4
I-4
tp740
(I-4
I-4
I-4
I-4
I-4
I-2
I-2
I-2
I-2
I-2
I-2
I-2
I-2
I-2
I-4
I-4
I-4
I-4
I-4
tp741
(I-4
I-4
I-4
I-4
I-4
I-2
I-2
I-2
I-2
I-2
I-2
I-2
I-2
I-2
I-4
I-4
I-4
I-4
I-4
tp742
(I-4
I-4
I-4
I-4
I-4
I-2
I-2
I-2
I-2
I-2
I-2
I-2
I-2
I-2
I-4
I-4
I-4
I-4
I-4
tp743
(I-4
I-4
I-4
I-4
I-4
I-4
I-4
I-4
I-4
I-4
I-4
I-4
I-4
I-4
I-4
I-4
I-4
I-4
I-4
tp744
tp745
(I8
I10
tp746
I14
I19
tp747
g40
tp748
F0.0
s((((I-4
I-4
I-4
I-4
I-4
I-4
I-4
I-4
I-4
I-4
I-4
I-4
I-4
I-4
I-4
I-4
I-4
I-4
I-4
tp749
(I-4
I-4
I-4
I-4
I-4
I-2
I-2
I-2
I-4
I1
I-4
I-2
I-2
I-2
I-4
I-4
I-4
I-4
I-4
tp750
(I-4
I-4
I-4
I-4
I-4
I-2
I-2
I-2
I-4
I-4
I-4
I-2
I-2
I-2
I-4
I-4
I-4
I-4
I-4
tp751
(I-4
I-4
I-2
I-4
I-4
I-2
I-2
I-2
I-2
I-2
I-2
I-2
I-2
I-2
I-4
I-4
I-4
I-4
I-4
tp752
(I-4
I-2
I-4
I-4
I-4
I-2
I-2
I-2
I-2
I-2
I-2
I-2
I-2
I-2
I-4
I-4
I-4
I-4
I-4
tp753
(I-4
I-4
I-4
I-4
I-4
I-2
I-2
I-2
I-2
I-2
I-2
I-2
I-2
I-2
I-4
I-4
I-4
I-4
I-4
tp754
(I-4
I-4
I-4
I-4
I-4
I-2
I-2
I-2
I-2
I-2
I-2
I-2
I-2
I-2
I-4
I-4
I-4
I-4
I-4
tp755
(I-4
I-4
I-4
I-4
I-4
I-2
I-2
I-2
I-2
I-2
I0
I-2
I-2
I-2
I-4
I-4
I-4
I-4
I-4
tp756
(I-4
I-4
I-4
I-4
I-4
I-2
I-2
I-2
I-2
I-2
I-2
I-2
I-2
I-2
I-4
I-4
I-4
I-4
I-4
tp757
(I-4
I-4
I-4
I-4
I-4
I-2
I-2
I-2
I-2
I-2
I-2
I-2
I-2
I-2
I-4
I-4
I-4
I-4
I-4
tp758
(I-4
I-4
I-4
I-4
I-4
I-2
I-2
I-2
I-2
I-2
I-2
I-2
I-2
I-2
I-4
I-4
I-4
I-4
I-4
tp759
(I-4
I-4
I-4
I-4
I-4
I-2
I-2
I-2
I-2
I-2
I-2
I-2
I-2
I-2
I-4
I-4
I-4
I-4
I-4
tp760
(I-4
I-4
I-4
I-4
I-4
I-2
I-2
I-2
I-2
I-2
I-2
I-2
I-2
I-2
I-4
I-4
I-4
I-4
I-4
tp761
(I-4
I-4
I-4
I-4
I-4
I-4
I-4
I-4
I-4
I-4
I-4
I-4
I-4
I-4
I-4
I-4
I-4
I-4
I-4
tp762
tp763
(I7
I10
tp764
I14
I19
tp765
g21
tp766
I0
s((((I-4
I-4
I-4
I-4
I-4
I-4
I-4
I-4
I-4
I-4
I-4
I-4
I-4
I-4
I-4
I-4
I-4
I-4
I-4
tp767
(I-2
I-2
I-4
I-4
I-4
I-2
I-2
I-2
I-4
I1
I-4
I-2
I-2
I-2
I-4
I-4
I-4
I-4
I-4
tp768
(I-2
I-2
I-4
I-4
I-4
I-2
I-2
I-2
I-4
I-4
I-4
I-2
I-2
I-2
I-4
I-4
I-4
I-4
I-4
tp769
(I-2
I-2
I-2
I-4
I-4
I-2
I-2
I-2
I-2
I-2
I-2
I-2
I-2
I-2
I-4
I-4
I-4
I-4
I-2
tp770
(I-2
I-2
I-4
I-4
I-4
I-2
I-2
I-2
I-2
I-2
I-2
I-2
I-2
I-2
I-4
I-4
I-4
I-2
I-2
tp771
(I-2
I-2
I-4
I-4
I-4
I-2
I-2
I-2
I-2
I-2
I-2
I-2
I-2
I-2
I-4
I-4
I-4
I-4
I-2
tp772
(I-2
I-4
I-4
I-4
I-4
I-2
I-2
I-2
I-2
I-2
I-2
I-2
I-2
I-2
I-4
I-4
I-4
I-4
I-4
tp773
(I-2
I-4
I-4
I-4
I-4
I-2
I-2
I-2
I-2
I-2
I-2
I-2
I-2
I-2
I-4
I-4
I-4
I-4
I-4
tp774
(I-4
I-4
I-4
I-4
I-4
I-2
I-2
I-2
I-2
I-2
I-2
I-2
I-2
I-2
I-4
I-4
I-4
I-4
I-4
tp775
(I-4
I-4
I-4
I-4
I-4
I-2
I-2
I-2
I-2
I-2
I-2
I-2
I-2
I-2
I-4
I-4
I-4
I-4
I-4
tp776
(I-4
I-4
I-4
I-4
I-4
I-2
I-2
I-2
I-2
I-2
I-2
I-2
I-2
I-2
I-4
I-4
I-4
I-4
I-4
tp777
(I-4
I-4
I-4
I-4
I-4
I-2
I-2
I-2
I-2
I-2
I-2
I0
I-2
I-2
I-4
I-4
I-4
I-4
I-4
tp778
(I-4
I-4
I-4
I-4
I-4
I-2
I-2
I-2
I-2
I-2
I-2
I-2
I-2
I-2
I-4
I-4
I-4
I-4
I-4
tp779
(I-4
I-4
I-4
I-4
I-4
I-4
I-4
I-4
I-4
I-4
I-4
I-4
I-4
I-4
I-4
I-4
I-4
I-4
I-4
tp780
tp781
(I11
I11
tp782
I14
I19
tp783
g40
tp784
I0
s(g425
g135
tp785
F1.0088427207342658
s(g747
g59
tp786
F0.0
s((((I-4
I-4
I-4
I-4
I-4
I-4
I-4
I-4
I-4
I-4
I-4
I-4
I-4
I-4
I-4
I-4
I-4
I-4
I-4
tp787
(I-4
I-4
I-4
I-4
I-4
I-2
I-2
I-2
I-4
I1
I-4
I-2
I-2
I-2
I-4
I-4
I-4
I-4
I-4
tp788
(I-4
I-4
I-4
I-4
I-4
I-2
I-2
I-2
I-4
I-4
I-4
I-2
I-2
I-2
I-4
I-4
I-4
I-4
I-4
tp789
(I-4
I-4
I-4
I-4
I-4
I-2
I-2
I-2
I-2
I-2
I-2
I-2
I-2
I-2
I-4
I-4
I-4
I-4
I-4
tp790
(I-4
I-4
I-4
I-4
I-4
I-2
I-2
I-2
I-2
I-2
I-2
I-2
I-2
I-2
I-4
I-4
I-4
I-4
I-4
tp791
(I-4
I-4
I-4
I-4
I-4
I-2
I-2
I-2
I-2
I-2
I-2
I-2
I-2
I-2
I-4
I-4
I-4
I-4
I-4
tp792
(I-4
I-4
I-4
I-4
I-4
I-2
I-2
I-2
I-2
I-2
I0
I-2
I-2
I-2
I-4
I-4
I-4
I-4
I-4
tp793
(I-4
I-4
I-4
I-4
I-4
I-2
I-2
I-2
I-2
I-2
I-2
I-2
I-2
I-2
I-4
I-4
I-4
I-4
I-4
tp794
(I-4
I-4
I-4
I-4
I-4
I-2
I-2
I-2
I-2
I-2
I-2
I-2
I-2
I-2
I-4
I-4
I-4
I-4
I-4
tp795
(I-4
I-4
I-4
I-4
I-4
I-2
I-2
I-2
I-2
I-2
I-2
I-2
I-2
I-2
I-4
I-4
I-4
I-4
I-4
tp796
(I-4
I-4
I-4
I-4
I-4
I-2
I-2
I-2
I-2
I-2
I-2
I-2
I-2
I-2
I-4
I-4
I-4
I-4
I-4
tp797
(I-4
I-4
I-4
I-4
I-4
I-2
I-2
I-2
I-2
I-2
I-2
I-2
I-2
I-2
I-4
I-4
I-4
I-4
I-4
tp798
(I-4
I-4
I-4
I-4
I-4
I-2
I-2
I-2
I-2
I-2
I-2
I-2
I-2
I-2
I-4
I-4
I-4
I-4
I-4
tp799
(I-4
I-4
I-4
I-4
I-4
I-4
I-4
I-4
I-4
I-4
I-4
I-4
I-4
I-4
I-4
I-4
I-4
I-4
I-4
tp800
tp801
(I6
I10
tp802
I14
I19
tp803
g21
tp804
F0.1110090840803607
s((((I-4
I-4
I-4
I-4
I-4
I-4
I-4
I-4
I-4
I-4
I-4
I-4
I-4
I-4
I-4
I-4
I-4
I-4
I-4
tp805
(I-4
I-4
I-4
I-4
I-4
I-2
I-2
I-2
I-4
I1
I-4
I-2
I-2
I-2
I-4
I-4
I-4
I-4
I-4
tp806
(I-4
I-4
I-4
I-4
I-4
I-2
I-2
I-2
I-4
I-4
I-4
I-2
I-2
I-2
I-4
I-4
I-4
I-4
I-4
tp807
(I-4
I-4
I-4
I-4
I-4
I-2
I-2
I-2
I-2
I-2
I-2
I-2
I-2
I-2
I-4
I-4
I-4
I-4
I-4
tp808
(I-4
I-4
I-4
I-4
I-4
I-2
I-2
I-2
I-2
I-2
I-2
I-2
I-2
I-2
I-4
I-4
I-4
I-4
I-4
tp809
(I-4
I-4
I-4
I-4
I-4
I-2
I-2
I-2
I-2
I-2
I-2
I-2
I-2
I-2
I-4
I-4
I-4
I-4
I-4
tp810
(I-4
I-4
I-4
I-4
I-4
I-2
I-2
I-2
I-2
I-2
I-2
I-2
I-2
I0
I-4
I-4
I-4
I-4
I-4
tp811
(I-4
I-4
I-4
I-4
I-4
I-2
I-2
I-2
I-2
I-2
I-2
I-2
I-2
I-2
I-4
I-4
I-4
I-4
I-4
tp812
(I-4
I-4
I-4
I-4
I-4
I-2
I-2
I-2
I-2
I-2
I-2
I-2
I-2
I-2
I-4
I-4
I-4
I-4
I-4
tp813
(I-4
I-4
I-4
I-4
I-4
I-2
I-2
I-2
I-2
I-2
I-2
I-2
I-2
I-2
I-4
I-4
I-4
I-4
I-4
tp814
(I-4
I-4
I-4
I-4
I-4
I-2
I-2
I-2
I-2
I-2
I-2
I-2
I-2
I-2
I-4
I-4
I-4
I-4
I-4
tp815
(I-4
I-4
I-4
I-4
I-4
I-2
I-2
I-2
I-2
I-2
I-2
I-2
I-2
I-2
I-4
I-4
I-4
I-4
I-4
tp816
(I-4
I-4
I-4
I-4
I-4
I-2
I-2
I-2
I-2
I-2
I-2
I-2
I-2
I-2
I-4
I-4
I-4
I-4
I-4
tp817
(I-4
I-4
I-4
I-4
I-4
I-4
I-4
I-4
I-4
I-4
I-4
I-4
I-4
I-4
I-4
I-4
I-4
I-4
I-4
tp818
tp819
(I6
I13
tp820
I14
I19
tp821
g59
tp822
F0.075027099609375
s(g711
g59
tp823
I0
s(g821
g135
tp824
I0
s(g555
g78
tp825
I0
s(g352
g59
tp826
I0
s(g115
g481
tp827
F0.10098265006519105
s(g316
g135
tp828
F1.1004791964406846
s(g711
g40
tp829
I0
s(g729
g40
tp830
I0
s((((I-4
I-4
I-4
I-4
I-4
I-4
I-4
I-4
I-4
I-4
I-4
I-4
I-4
I-4
I-4
I-4
I-4
I-4
I-4
tp831
(I-4
I-4
I-4
I-4
I-4
I-2
I-2
I-2
I-4
I1
I-4
I-2
I-2
I-2
I-4
I-4
I-4
I-4
I-4
tp832
(I-4
I-4
I-4
I-4
I-4
I-2
I-2
I-2
I-4
I-4
I-4
I-2
I-2
I-2
I-4
I-4
I-4
I-4
I-4
tp833
(I-4
I-4
I-2
I-4
I-4
I-2
I-2
I-2
I-2
I-2
I-2
I-2
I-2
I-2
I-4
I-4
I-4
I-4
I-4
tp834
(I-4
I-2
I-4
I-4
I-4
I-2
I-2
I-2
I-2
I-2
I-2
I-2
I-2
I-2
I-4
I-4
I-4
I-4
I-4
tp835
(I-4
I-4
I-4
I-4
I-4
I-2
I-2
I-2
I-2
I-2
I-2
I-2
I-2
I-2
I-4
I-4
I-4
I-4
I-4
tp836
(I-4
I-4
I-4
I-4
I-4
I-2
I-2
I-2
I-2
I-2
I-2
I-2
I-2
I-2
I-4
I-4
I-4
I-4
I-4
tp837
(I-4
I-4
I-4
I-4
I-4
I-2
I-2
I-2
I-2
I-2
I-2
I0
I-2
I-2
I-4
I-4
I-4
I-4
I-4
tp838
(I-4
I-4
I-4
I-4
I-4
I-2
I-2
I-2
I-2
I-2
I-2
I-2
I-2
I-2
I-4
I-4
I-4
I-4
I-4
tp839
(I-4
I-4
I-4
I-4
I-4
I-2
I-2
I-2
I-2
I-2
I-2
I-2
I-2
I-2
I-4
I-4
I-4
I-4
I-4
tp840
(I-4
I-4
I-4
I-4
I-4
I-2
I-2
I-2
I-2
I-2
I-2
I-2
I-2
I-2
I-4
I-4
I-4
I-4
I-4
tp841
(I-4
I-4
I-4
I-4
I-4
I-2
I-2
I-2
I-2
I-2
I-2
I-2
I-2
I-2
I-4
I-4
I-4
I-4
I-4
tp842
(I-4
I-4
I-4
I-4
I-4
I-2
I-2
I-2
I-2
I-2
I-2
I-2
I-2
I-2
I-4
I-4
I-4
I-4
I-4
tp843
(I-4
I-4
I-4
I-4
I-4
I-4
I-4
I-4
I-4
I-4
I-4
I-4
I-4
I-4
I-4
I-4
I-4
I-4
I-4
tp844
tp845
(I7
I11
tp846
I14
I19
tp847
g116
tp848
I0
s((((I-4
I-4
I-4
I-4
I-4
I-4
I-4
I-4
I-4
I-4
I-4
I-4
I-4
I-4
I-4
I-4
I-4
I-4
I-4
tp849
(I-4
I-4
I-4
I-4
I-4
I-2
I-2
I-2
I-4
I1
I-4
I-2
I-2
I-2
I-4
I-4
I-4
I-4
I-4
tp850
(I-4
I-4
I-4
I-4
I-4
I-2
I-2
I-2
I-4
I-4
I-4
I-2
I-2
I-2
I-4
I-4
I-4
I-4
I-4
tp851
(I-4
I-4
I-4
I-4
I-4
I-2
I-2
I-2
I-2
I-2
I-2
I-2
I-2
I-2
I-4
I-4
I-4
I-4
I-4
tp852
(I-4
I-4
I-4
I-4
I-4
I-2
I-2
I-2
I-2
I-2
I-2
I-2
I-2
I-2
I-4
I-4
I-4
I-4
I-4
tp853
(I-4
I-4
I-4
I-4
I-4
I-2
I-2
I-2
I-2
I-2
I-2
I-2
I-2
I-2
I-4
I-4
I-4
I-4
I-4
tp854
(I-4
I-4
I-4
I-4
I-4
I-2
I-2
I-2
I-2
I-2
I-2
I-2
I-2
I-2
I-4
I-4
I-4
I-4
I-4
tp855
(I-4
I-4
I-4
I-4
I-4
I-2
I-2
I-2
I-2
I-2
I-2
I-2
I0
I-2
I-4
I-4
I-4
I-4
I-4
tp856
(I-4
I-4
I-4
I-4
I-4
I-2
I-2
I-2
I-2
I-2
I-2
I-2
I-2
I-2
I-4
I-4
I-4
I-4
I-4
tp857
(I-4
I-4
I-4
I-4
I-4
I-2
I-2
I-2
I-2
I-2
I-2
I-2
I-2
I-2
I-4
I-4
I-4
I-4
I-4
tp858
(I-4
I-4
I-4
I-4
I-4
I-2
I-2
I-2
I-2
I-2
I-2
I-2
I-2
I-2
I-4
I-4
I-4
I-4
I-4
tp859
(I-4
I-4
I-4
I-4
I-4
I-2
I-2
I-2
I-2
I-2
I-2
I-2
I-2
I-2
I-4
I-4
I-4
I-4
I-4
tp860
(I-4
I-4
I-4
I-4
I-4
I-2
I-2
I-2
I-2
I-2
I-2
I-2
I-2
I-2
I-4
I-4
I-4
I-4
I-4
tp861
(I-4
I-4
I-4
I-4
I-4
I-4
I-4
I-4
I-4
I-4
I-4
I-4
I-4
I-4
I-4
I-4
I-4
I-4
I-4
tp862
tp863
(I7
I12
tp864
I14
I19
tp865
g59
tp866
F0.010824816346884827
s((((I-4
I-4
I-4
I-4
I-4
I-4
I-4
I-4
I-4
I-4
I-4
I-4
I-4
I-4
I-4
I-4
I-4
I-4
I-4
tp867
(I-4
I-4
I-4
I-4
I-4
I-2
I-2
I-2
I-4
I1
I-4
I-2
I-2
I-2
I-4
I-4
I-4
I-4
I-4
tp868
(I-4
I-4
I-4
I-4
I-4
I-2
I-2
I-2
I-4
I-4
I-4
I-2
I-2
I-2
I-4
I-4
I-4
I-4
I-4
tp869
(I-4
I-4
I-4
I-4
I-4
I-2
I-2
I-2
I-2
I-2
I-2
I-2
I-2
I-2
I-4
I-4
I-4
I-4
I-4
tp870
(I-4
I-4
I-4
I-4
I-4
I-2
I-2
I-2
I-2
I-2
I-2
I-2
I-2
I-2
I-4
I-4
I-4
I-4
I-4
tp871
(I-4
I-4
I-4
I-4
I-4
I-2
I-2
I-2
I-2
I-2
I-2
I-2
I-2
I-2
I-4
I-4
I-4
I-4
I-4
tp872
(I-4
I-4
I-4
I-4
I-4
I-2
I-2
I-2
I-2
I-2
I-2
I-2
I-2
I-2
I-4
I-4
I-4
I-4
I-4
tp873
(I-4
I-4
I-4
I-4
I-4
I-2
I-2
I-2
I-2
I-2
I-2
I-2
I-2
I-2
I-4
I-4
I-4
I-4
I-4
tp874
(I-4
I-4
I-4
I-4
I-4
I-2
I-2
I-2
I-2
I-2
I-2
I-2
I-2
I-2
I-4
I-4
I-4
I-4
I-4
tp875
(I-4
I-4
I-4
I-4
I-4
I-2
I-2
I-2
I-2
I-2
I-2
I-2
I-2
I0
I-4
I-4
I-4
I-4
I-4
tp876
(I-4
I-4
I-4
I-4
I-4
I-2
I-2
I-2
I-2
I-2
I-2
I-2
I-2
I-2
I-4
I-4
I-4
I-4
I-4
tp877
(I-4
I-4
I-4
I-4
I-4
I-2
I-2
I-2
I-2
I-2
I-2
I-2
I-2
I-2
I-4
I-4
I-4
I-4
I-4
tp878
(I-4
I-4
I-4
I-4
I-4
I-2
I-2
I-2
I-2
I-2
I-2
I-2
I-2
I-2
I-4
I-4
I-4
I-4
I-4
tp879
(I-4
I-4
I-4
I-4
I-4
I-4
I-4
I-4
I-4
I-4
I-4
I-4
I-4
I-4
I-4
I-4
I-4
I-4
I-4
tp880
tp881
(I9
I13
tp882
I14
I19
tp883
g21
tp884
F0.01055631650458723
s((((I-4
I-4
I-4
I-4
I-4
I-4
I-4
I-4
I-4
I-4
I-4
I-4
I-4
I-4
I-4
I-4
I-4
I-4
I-4
tp885
(I-4
I-4
I-4
I-4
I-4
I-2
I-2
I-2
I-4
I1
I-4
I-2
I-2
I-2
I-4
I-4
I-4
I-4
I-4
tp886
(I-4
I-4
I-4
I-4
I-4
I-2
I-2
I-2
I-4
I-4
I-4
I-2
I-2
I-2
I-4
I-4
I-4
I-4
I-4
tp887
(I-4
I-4
I-4
I-4
I-4
I-2
I-2
I-2
I-2
I-2
I-2
I-2
I-2
I-2
I-4
I-4
I-4
I-4
I-4
tp888
(I-4
I-4
I-4
I-4
I-4
I-2
I-2
I-2
I-2
I-2
I-2
I-2
I-2
I-2
I-4
I-4
I-4
I-4
I-4
tp889
(I-4
I-4
I-4
I-4
I-4
I-2
I-2
I-2
I-2
I-2
I-2
I-2
I-2
I-2
I-4
I-4
I-4
I-4
I-4
tp890
(I-4
I-4
I-4
I-4
I-4
I-2
I-2
I-2
I-2
I-2
I-2
I-2
I-2
I-2
I-4
I-4
I-4
I-4
I-4
tp891
(I-4
I-4
I-4
I-4
I-4
I-2
I-2
I-2
I-2
I-2
I-2
I-2
I-2
I-2
I-4
I-4
I-4
I-4
I-4
tp892
(I-4
I-4
I-4
I-4
I-4
I-2
I-2
I-2
I-2
I-2
I-2
I-2
I-2
I-2
I-4
I-4
I-4
I-4
I-4
tp893
(I-4
I-4
I-4
I-4
I-4
I-2
I-2
I-2
I-2
I-2
I-2
I-2
I-2
I-2
I-4
I-4
I-4
I-4
I-4
tp894
(I-4
I-4
I-4
I-4
I-4
I-2
I-2
I-2
I-2
I0
I-2
I-2
I-2
I-2
I-4
I-4
I-4
I-4
I-4
tp895
(I-4
I-4
I-4
I-4
I-4
I-2
I-2
I-2
I-2
I-2
I-2
I-2
I-2
I-2
I-4
I-4
I-4
I-4
I-4
tp896
(I-4
I-4
I-4
I-4
I-4
I-2
I-2
I-2
I-2
I-2
I-2
I-2
I-2
I-2
I-4
I-4
I-4
I-4
I-4
tp897
(I-4
I-4
I-4
I-4
I-4
I-4
I-4
I-4
I-4
I-4
I-4
I-4
I-4
I-4
I-4
I-4
I-4
I-4
I-4
tp898
tp899
(I10
I9
tp900
I14
I19
tp901
g59
tp902
I0
s(g389
g59
tp903
I0
s(g499
g78
tp904
I0
s(g634
g59
tp905
I0
s(g598
g21
tp906
I0
s((((I-4
I-4
I-4
I-4
I-4
I-4
I-4
I-4
I-4
I-4
I-4
I-4
I-4
I-4
I-4
I-4
I-4
I-4
I-4
tp907
(I-4
I-4
I-4
I-4
I-4
I-2
I-2
I-2
I-4
I1
I-4
I-2
I-2
I-2
I-4
I-4
I-4
I-4
I-4
tp908
(I-4
I-4
I-4
I-4
I-4
I-2
I-2
I-2
I-4
I-4
I-4
I-2
I-2
I-2
I-4
I-4
I-4
I-4
I-4
tp909
(I-4
I-4
I-4
I-4
I-4
I-2
I-2
I-2
I-2
I-2
I-2
I-2
I-2
I-2
I-4
I-4
I-4
I-4
I-4
tp910
(I-4
I-4
I-4
I-4
I-4
I-2
I-2
I-2
I-2
I-2
I-2
I-2
I-2
I-2
I-4
I-4
I-4
I-4
I-4
tp911
(I-4
I-4
I-4
I-4
I-4
I-2
I-2
I-2
I-2
I-2
I-2
I-2
I-2
I-2
I-4
I-4
I-4
I-4
I-4
tp912
(I-4
I-4
I-4
I-4
I-4
I-2
I-2
I-2
I-2
I-2
I-2
I-2
I-2
I-2
I-4
I-4
I-4
I-4
I-4
tp913
(I-4
I-4
I-4
I-4
I-4
I-2
I-2
I-2
I-2
I-2
I-2
I-2
I-2
I-2
I-4
I-4
I-4
I-4
I-4
tp914
(I-4
I-4
I-4
I-4
I-4
I-2
I-2
I-2
I-2
I-2
I-2
I-2
I-2
I-2
I-4
I-4
I-4
I-4
I-4
tp915
(I-4
I-4
I-4
I-4
I-4
I-2
I-2
I-2
I-2
I-2
I-2
I-2
I-2
I-2
I-4
I-4
I-4
I-4
I-4
tp916
(I-4
I-4
I-4
I-4
I-4
I-2
I-2
I-2
I-2
I-2
I-2
I-2
I-2
I-2
I-4
I-4
I-4
I-4
I-4
tp917
(I-4
I-4
I-4
I-4
I-4
I-2
I-2
I-2
I-2
I0
I-2
I-2
I-2
I-2
I-4
I-4
I-4
I-4
I-4
tp918
(I-4
I-4
I-4
I-4
I-4
I-2
I-2
I-2
I-2
I-2
I-2
I-2
I-2
I-2
I-4
I-4
I-4
I-4
I-4
tp919
(I-4
I-4
I-4
I-4
I-4
I-4
I-4
I-4
I-4
I-4
I-4
I-4
I-4
I-4
I-4
I-4
I-4
I-4
I-4
tp920
tp921
(I11
I9
tp922
I14
I19
tp923
g78
tp924
I0
s(g499
g40
tp925
I0
s((((I-4
I-4
I-4
I-4
I-4
I-4
I-4
I-4
I-4
I-4
I-4
I-4
I-4
I-4
I-4
I-4
I-4
I-4
I-4
tp926
(I-4
I-4
I-4
I-4
I-4
I-2
I-2
I-2
I-4
I1
I-4
I-2
I-2
I-2
I-4
I-4
I-4
I-4
I-4
tp927
(I-4
I-4
I-4
I-4
I-4
I-2
I-2
I-2
I-4
I-4
I-4
I-2
I-2
I-2
I-4
I-4
I-4
I-4
I-4
tp928
(I-4
I-4
I-4
I-4
I-4
I-2
I-2
I-2
I-2
I-2
I-2
I-2
I-2
I-2
I-4
I-4
I-4
I-4
I-4
tp929
(I-4
I-4
I-4
I-4
I-4
I-2
I-2
I-2
I-2
I-2
I-2
I-2
I-2
I-2
I-4
I-4
I-4
I-4
I-4
tp930
(I-4
I-4
I-4
I-4
I-4
I-2
I-2
I-2
I-2
I-2
I-2
I-2
I-2
I-2
I-4
I-4
I-4
I-4
I-4
tp931
(I-4
I-4
I-4
I-4
I-4
I-2
I-2
I-2
I-2
I-2
I-2
I-2
I-2
I-2
I-4
I-4
I-4
I-4
I-4
tp932
(I-4
I-4
I-4
I-4
I-4
I-2
I-2
I-2
I-2
I-2
I-2
I-2
I-2
I-2
I-4
I-4
I-4
I-4
I-4
tp933
(I-4
I-4
I-4
I-4
I-4
I-2
I-2
I-2
I-2
I-2
I-2
I-2
I-2
I-2
I-4
I-4
I-4
I-4
I-4
tp934
(I-4
I-4
I-4
I-4
I-4
I-2
I-2
I-2
I-2
I0
I-2
I-2
I-2
I-2
I-4
I-4
I-4
I-4
I-4
tp935
(I-4
I-4
I-4
I-4
I-4
I-2
I-2
I-2
I-2
I-2
I-2
I-2
I-2
I-2
I-4
I-4
I-4
I-4
I-4
tp936
(I-4
I-4
I-4
I-4
I-4
I-2
I-2
I-2
I-2
I-2
I-2
I-2
I-2
I-2
I-4
I-4
I-4
I-4
I-4
tp937
(I-4
I-4
I-4
I-4
I-4
I-2
I-2
I-2
I-2
I-2
I-2
I-2
I-2
I-2
I-4
I-4
I-4
I-4
I-4
tp938
(I-4
I-4
I-4
I-4
I-4
I-4
I-4
I-4
I-4
I-4
I-4
I-4
I-4
I-4
I-4
I-4
I-4
I-4
I-4
tp939
tp940
(I9
I9
tp941
I14
I19
tp942
g78
tp943
F0.0
s((((I-4
I-4
I-4
I-4
I-4
I-4
I-4
I-4
I-4
I-4
I-4
I-4
I-4
I-4
I-4
I-4
I-4
I-4
I-4
tp944
(I-4
I-4
I-4
I-4
I-4
I-2
I-2
I-2
I-4
I1
I-4
I-2
I-2
I-2
I-4
I-4
I-4
I-4
I-4
tp945
(I-4
I-4
I-4
I-4
I-4
I-2
I-2
I-2
I-4
I-4
I-4
I-2
I-2
I-2
I-4
I-4
I-4
I-4
I-4
tp946
(I-4
I-4
I-2
I-4
I-4
I-2
I-2
I-2
I-2
I-2
I-2
I-2
I-2
I-2
I-4
I-4
I-4
I-4
I-4
tp947
(I-4
I-2
I-4
I-4
I-4
I-2
I-2
I-2
I-2
I-2
I-2
I-2
I-2
I-2
I-4
I-4
I-4
I-4
I-4
tp948
(I-4
I-2
I-4
I-4
I-4
I-2
I-2
I-2
I-2
I-2
I-2
I-2
I-2
I-2
I-4
I-4
I-4
I-4
I-4
tp949
(I-4
I-4
I-4
I-4
I-4
I-2
I-2
I-2
I-2
I-2
I-2
I-2
I-2
I-2
I-4
I-4
I-4
I-4
I-4
tp950
(I-4
I-4
I-4
I-4
I-4
I-2
I-2
I-2
I-2
I-2
I-2
I-2
I-2
I-2
I-4
I-4
I-4
I-4
I-4
tp951
(I-4
I-4
I-4
I-4
I-4
I-2
I-2
I-2
I-2
I-2
I-2
I-2
I-2
I-2
I-4
I-4
I-4
I-4
I-4
tp952
(I-4
I-4
I-4
I-4
I-4
I-2
I-2
I-2
I-2
I-2
I-2
I-2
I-2
I-2
I-4
I-4
I-4
I-4
I-4
tp953
(I-4
I-4
I-4
I-4
I-4
I-2
I-2
I-2
I-2
I-2
I-2
I-2
I-2
I-2
I-4
I-4
I-4
I-4
I-4
tp954
(I-4
I-4
I-4
I-4
I-4
I-2
I-2
I-2
I-2
I-2
I-2
I-2
I-2
I-2
I-4
I-4
I-4
I-4
I-4
tp955
(I-4
I-4
I-4
I-4
I-4
I-2
I-2
I-2
I-2
I-2
I-2
I0
I-2
I-2
I-4
I-4
I-4
I-4
I-4
tp956
(I-4
I-4
I-4
I-4
I-4
I-4
I-4
I-4
I-4
I-4
I-4
I-4
I-4
I-4
I-4
I-4
I-4
I-4
I-4
tp957
tp958
(I12
I11
tp959
I14
I19
tp960
g40
tp961
I0
s(g77
g135
tp962
F0.7500625
s((((I-4
I-4
I-4
I-4
I-4
I-4
I-4
I-4
I-4
I-4
I-4
I-4
I-4
I-4
I-4
I-4
I-4
I-4
I-4
tp963
(I-4
I-4
I-4
I-4
I-4
I-2
I-2
I-2
I-4
I1
I-4
I-2
I-2
I-2
I-4
I-4
I-4
I-4
I-4
tp964
(I-4
I-4
I-4
I-4
I-4
I-2
I-2
I-2
I-4
I-4
I-4
I-2
I-2
I-2
I-4
I-4
I-4
I-4
I-4
tp965
(I-4
I-4
I-4
I-4
I-4
I-2
I-2
I-2
I-2
I-2
I-2
I-2
I-2
I-2
I-4
I-4
I-4
I-4
I-4
tp966
(I-4
I-4
I-4
I-4
I-4
I-2
I-2
I-2
I-2
I-2
I-2
I-2
I-2
I-2
I-4
I-4
I-4
I-4
I-4
tp967
(I-4
I-4
I-4
I-4
I-4
I-2
I-2
I-2
I-2
I-2
I-2
I-2
I-2
I-2
I-4
I-4
I-4
I-4
I-4
tp968
(I-4
I-4
I-4
I-4
I-4
I-2
I-2
I-2
I-2
I-2
I-2
I-2
I-2
I-2
I-4
I-4
I-4
I-4
I-4
tp969
(I-4
I-4
I-4
I-4
I-4
I-2
I-2
I-2
I-2
I-2
I-2
I-2
I-2
I-2
I-4
I-4
I-4
I-4
I-4
tp970
(I-4
I-4
I-4
I-4
I-4
I-2
I-2
I-2
I-2
I-2
I0
I-2
I-2
I-2
I-4
I-4
I-4
I-4
I-4
tp971
(I-4
I-4
I-4
I-4
I-4
I-2
I-2
I-2
I-2
I-2
I-2
I-2
I-2
I-2
I-4
I-4
I-4
I-4
I-4
tp972
(I-4
I-4
I-4
I-4
I-4
I-2
I-2
I-2
I-2
I-2
I-2
I-2
I-2
I-2
I-4
I-4
I-4
I-4
I-4
tp973
(I-4
I-4
I-4
I-4
I-4
I-2
I-2
I-2
I-2
I-2
I-2
I-2
I-2
I-2
I-4
I-4
I-4
I-4
I-4
tp974
(I-4
I-4
I-4
I-4
I-4
I-2
I-2
I-2
I-2
I-2
I-2
I-2
I-2
I-2
I-4
I-4
I-4
I-4
I-4
tp975
(I-4
I-4
I-4
I-4
I-4
I-4
I-4
I-4
I-4
I-4
I-4
I-4
I-4
I-4
I-4
I-4
I-4
I-4
I-4
tp976
tp977
(I8
I10
tp978
I14
I19
tp979
g59
tp980
F0.0
s(g865
g78
tp981
F0.059484375000000006
s(g134
g59
tp982
I0
s((((I-4
I-4
I-4
I-4
I-4
I-4
I-4
I-4
I-4
I-4
I-4
I-4
I-4
I-4
I-4
I-4
I-4
I-4
I-4
tp983
(I-4
I-4
I-4
I-4
I-4
I-2
I-2
I-2
I-4
I1
I-4
I-2
I-2
I-2
I-4
I-4
I-4
I-4
I-4
tp984
(I-4
I-4
I-4
I-4
I-4
I-2
I-2
I-2
I-4
I-4
I-4
I-2
I-2
I-2
I-4
I-4
I-4
I-4
I-4
tp985
(I-4
I-4
I-2
I-4
I-4
I-2
I-2
I-2
I-2
I-2
I-2
I-2
I-2
I-2
I-4
I-4
I-4
I-4
I-4
tp986
(I-4
I-2
I-4
I-4
I-4
I-2
I-2
I-2
I-2
I-2
I-2
I-2
I-2
I-2
I-4
I-4
I-4
I-4
I-4
tp987
(I-4
I-4
I-4
I-4
I-4
I-2
I-2
I-2
I-2
I-2
I-2
I-2
I-2
I-2
I-4
I-4
I-4
I-4
I-4
tp988
(I-4
I-4
I-4
I-4
I-4
I-2
I-2
I-2
I-2
I-2
I-2
I-2
I-2
I-2
I-4
I-4
I-4
I-4
I-4
tp989
(I-4
I-4
I-4
I-4
I-4
I-2
I-2
I-2
I-2
I-2
I-2
I-2
I-2
I-2
I-4
I-4
I-4
I-4
I-4
tp990
(I-4
I-4
I-4
I-4
I-4
I-2
I-2
I-2
I-2
I-2
I0
I-2
I-2
I-2
I-4
I-4
I-4
I-4
I-4
tp991
(I-4
I-4
I-4
I-4
I-4
I-2
I-2
I-2
I-2
I-2
I-2
I-2
I-2
I-2
I-4
I-4
I-4
I-4
I-4
tp992
(I-4
I-4
I-4
I-4
I-4
I-2
I-2
I-2
I-2
I-2
I-2
I-2
I-2
I-2
I-4
I-4
I-4
I-4
I-4
tp993
(I-4
I-4
I-4
I-4
I-4
I-2
I-2
I-2
I-2
I-2
I-2
I-2
I-2
I-2
I-4
I-4
I-4
I-4
I-4
tp994
(I-4
I-4
I-4
I-4
I-4
I-2
I-2
I-2
I-2
I-2
I-2
I-2
I-2
I-2
I-4
I-4
I-4
I-4
I-4
tp995
(I-4
I-4
I-4
I-4
I-4
I-4
I-4
I-4
I-4
I-4
I-4
I-4
I-4
I-4
I-4
I-4
I-4
I-4
I-4
tp996
tp997
(I8
I10
tp998
I14
I19
tp999
g21
tp1000
I0
s((((I-4
I-4
I-4
I-4
I-4
I-4
I-4
I-4
I-4
I-4
I-4
I-4
I-4
I-4
I-4
I-4
I-4
I-4
I-4
tp1001
(I-4
I-2
I-4
I-4
I-4
I-2
I-2
I-2
I-4
I1
I-4
I-2
I-2
I-2
I-4
I-4
I-4
I-4
I-4
tp1002
(I-2
I-2
I-4
I-4
I-4
I-2
I-2
I-2
I-4
I-4
I-4
I-2
I-2
I-2
I-4
I-4
I-4
I-4
I-4
tp1003
(I-2
I-2
I-2
I-4
I-4
I-2
I-2
I-2
I-2
I-2
I-2
I-2
I-2
I-2
I-4
I-4
I-4
I-4
I-4
tp1004
(I-2
I-2
I-4
I-4
I-4
I-2
I-2
I-2
I-2
I-2
I-2
I-2
I-2
I-2
I-4
I-4
I-4
I-4
I-2
tp1005
(I-2
I-2
I-4
I-4
I-4
I-2
I-2
I-2
I-2
I-2
I-2
I-2
I-2
I-2
I-4
I-4
I-4
I-4
I-2
tp1006
(I-2
I-4
I-4
I-4
I-4
I-2
I-2
I-2
I-2
I-2
I-2
I-2
I-2
I-2
I-4
I-4
I-4
I-4
I-4
tp1007
(I-2
I-4
I-4
I-4
I-4
I-2
I-2
I-2
I-2
I-2
I-2
I-2
I-2
I-2
I-4
I-4
I-4
I-4
I-4
tp1008
(I-4
I-4
I-4
I-4
I-4
I-2
I-2
I-2
I-2
I-2
I-2
I-2
I-2
I-2
I-4
I-4
I-4
I-4
I-4
tp1009
(I-4
I-4
I-4
I-4
I-4
I-2
I-2
I-2
I-2
I-2
I-2
I-2
I-2
I-2
I-4
I-4
I-4
I-4
I-4
tp1010
(I-4
I-4
I-4
I-4
I-4
I-2
I-2
I-2
I-2
I-2
I-2
I-2
I-2
I-2
I-4
I-4
I-4
I-4
I-4
tp1011
(I-4
I-4
I-4
I-4
I-4
I-2
I-2
I-2
I-2
I-2
I-2
I-2
I-2
I-2
I-4
I-4
I-4
I-4
I-4
tp1012
(I-4
I-4
I-4
I-4
I-4
I-2
I-2
I-2
I-2
I-2
I-2
I0
I-2
I-2
I-4
I-4
I-4
I-4
I-4
tp1013
(I-4
I-4
I-4
I-4
I-4
I-4
I-4
I-4
I-4
I-4
I-4
I-4
I-4
I-4
I-4
I-4
I-4
I-4
I-4
tp1014
tp1015
(I12
I11
tp1016
I14
I19
tp1017
g40
tp1018
F0.0094533013671875
s((((I-4
I-4
I-4
I-4
I-4
I-4
I-4
I-4
I-4
I-4
I-4
I-4
I-4
I-4
I-4
I-4
I-4
I-4
I-4
tp1019
(I-4
I-4
I-4
I-4
I-4
I-2
I-2
I-2
I-4
I1
I-4
I-2
I-2
I-2
I-4
I-4
I-4
I-4
I-4
tp1020
(I-4
I-4
I-4
I-4
I-4
I-2
I-2
I-2
I-4
I-4
I-4
I-2
I-2
I-2
I-4
I-4
I-4
I-4
I-4
tp1021
(I-4
I-4
I-2
I-4
I-4
I-2
I-2
I-2
I-2
I-2
I-2
I-2
I-2
I-2
I-4
I-4
I-4
I-4
I-4
tp1022
(I-4
I-2
I-4
I-4
I-4
I-2
I-2
I-2
I-2
I-2
I-2
I-2
I-2
I-2
I-4
I-4
I-4
I-4
I-4
tp1023
(I-4
I-2
I-4
I-4
I-4
I-2
I-2
I-2
I-2
I-2
I-2
I-2
I-2
I-2
I-4
I-4
I-4
I-4
I-4
tp1024
(I-4
I-4
I-4
I-4
I-4
I-2
I-2
I-2
I-2
I-2
I-2
I-2
I-2
I-2
I-4
I-4
I-4
I-4
I-4
tp1025
(I-4
I-4
I-4
I-4
I-4
I-2
I-2
I-2
I-2
I-2
I-2
I-2
I-2
I-2
I-4
I-4
I-4
I-4
I-4
tp1026
(I-4
I-4
I-4
I-4
I-4
I-2
I-2
I-2
I-2
I-2
I-2
I-2
I-2
I-2
I-4
I-4
I-4
I-4
I-4
tp1027
(I-4
I-4
I-4
I-4
I-4
I-2
I-2
I-2
I-2
I-2
I-2
I-2
I-2
I-2
I-4
I-4
I-4
I-4
I-4
tp1028
(I-4
I-4
I-4
I-4
I-4
I-2
I-2
I-2
I-2
I-2
I-2
I-2
I-2
I-2
I-4
I-4
I-4
I-4
I-4
tp1029
(I-4
I-4
I-4
I-4
I-4
I-2
I-2
I-2
I-2
I-2
I-2
I-2
I-2
I-2
I-4
I-4
I-4
I-4
I-4
tp1030
(I-4
I-4
I-4
I-4
I-4
I-2
I-2
I-2
I-2
I-2
I0
I-2
I-2
I-2
I-4
I-4
I-4
I-4
I-4
tp1031
(I-4
I-4
I-4
I-4
I-4
I-4
I-4
I-4
I-4
I-4
I-4
I-4
I-4
I-4
I-4
I-4
I-4
I-4
I-4
tp1032
tp1033
(I12
I10
tp1034
I14
I19
tp1035
g59
tp1036
I0
s((((I-4
I-4
I-4
I-4
I-4
I-4
I-4
I-4
I-4
I-4
I-4
I-4
I-4
I-4
I-4
I-4
I-4
I-4
I-4
tp1037
(I-4
I-4
I-4
I-4
I-4
I-2
I-2
I-2
I-4
I1
I-4
I-2
I-2
I-2
I-4
I-4
I-4
I-4
I-4
tp1038
(I-4
I-4
I-4
I-4
I-4
I-2
I-2
I-2
I-4
I-4
I-4
I-2
I-2
I-2
I-4
I-4
I-4
I-4
I-4
tp1039
(I-4
I-4
I-2
I-4
I-4
I-2
I-2
I-2
I-2
I-2
I-2
I-2
I-2
I-2
I-4
I-4
I-4
I-4
I-4
tp1040
(I-4
I-2
I-4
I-4
I-4
I-2
I-2
I-2
I-2
I-2
I-2
I-2
I-2
I-2
I-4
I-4
I-4
I-4
I-4
tp1041
(I-4
I-2
I-4
I-4
I-4
I-2
I-2
I-2
I-2
I-2
I-2
I-2
I-2
I-2
I-4
I-4
I-4
I-4
I-4
tp1042
(I-4
I-4
I-4
I-4
I-4
I-2
I-2
I-2
I-2
I-2
I-2
I-2
I-2
I-2
I-4
I-4
I-4
I-4
I-4
tp1043
(I-4
I-4
I-4
I-4
I-4
I-2
I-2
I-2
I-2
I-2
I-2
I-2
I-2
I-2
I-4
I-4
I-4
I-4
I-4
tp1044
(I-4
I-4
I-4
I-4
I-4
I-2
I-2
I-2
I-2
I-2
I-2
I0
I-2
I-2
I-4
I-4
I-4
I-4
I-4
tp1045
(I-4
I-4
I-4
I-4
I-4
I-2
I-2
I-2
I-2
I-2
I-2
I-2
I-2
I-2
I-4
I-4
I-4
I-4
I-4
tp1046
(I-4
I-4
I-4
I-4
I-4
I-2
I-2
I-2
I-2
I-2
I-2
I-2
I-2
I-2
I-4
I-4
I-4
I-4
I-4
tp1047
(I-4
I-4
I-4
I-4
I-4
I-2
I-2
I-2
I-2
I-2
I-2
I-2
I-2
I-2
I-4
I-4
I-4
I-4
I-4
tp1048
(I-4
I-4
I-4
I-4
I-4
I-2
I-2
I-2
I-2
I-2
I-2
I-2
I-2
I-2
I-4
I-4
I-4
I-4
I-4
tp1049
(I-4
I-4
I-4
I-4
I-4
I-4
I-4
I-4
I-4
I-4
I-4
I-4
I-4
I-4
I-4
I-4
I-4
I-4
I-4
tp1050
tp1051
(I8
I11
tp1052
I14
I19
tp1053
g116
tp1054
I0
s(g693
g59
tp1055
F0.0
s((((I-4
I-4
I-4
I-4
I-4
I-4
I-4
I-4
I-4
I-4
I-4
I-4
I-4
I-4
I-4
I-4
I-4
I-4
I-4
tp1056
(I-4
I-4
I-4
I-4
I-4
I-2
I-2
I-2
I-4
I1
I-4
I-2
I-2
I-2
I-4
I-4
I-4
I-4
I-4
tp1057
(I-4
I-4
I-4
I-4
I-4
I-2
I-2
I-2
I-4
I-4
I-4
I-2
I-2
I-2
I-4
I-4
I-4
I-4
I-4
tp1058
(I-4
I-4
I-4
I-4
I-4
I-2
I-2
I-2
I-2
I-2
I-2
I-2
I-2
I-2
I-4
I-4
I-4
I-4
I-4
tp1059
(I-4
I-4
I-4
I-4
I-4
I-2
I-2
I-2
I-2
I-2
I-2
I-2
I-2
I-2
I-4
I-4
I-4
I-4
I-4
tp1060
(I-4
I-4
I-4
I-4
I-4
I-2
I-2
I-2
I-2
I-2
I-2
I-2
I-2
I-2
I-4
I-4
I-4
I-4
I-4
tp1061
(I-4
I-4
I-4
I-4
I-4
I-2
I-2
I-2
I-2
I-2
I-2
I-2
I-2
I-2
I-4
I-4
I-4
I-4
I-4
tp1062
(I-4
I-4
I-4
I-4
I-4
I-2
I-2
I-2
I-2
I-2
I-2
I-2
I-2
I-2
I-4
I-4
I-4
I-4
I-4
tp1063
(I-4
I-4
I-4
I-4
I-4
I-2
I-2
I-2
I-2
I-2
I-2
I-2
I-2
I-2
I-4
I-4
I-4
I-4
I-4
tp1064
(I-4
I-4
I-4
I-4
I-4
I-2
I-2
I-2
I-2
I-2
I-2
I-2
I-2
I-2
I-4
I-4
I-4
I-4
I-4
tp1065
(I-4
I-4
I-4
I-4
I-4
I-2
I-2
I-2
I-2
I-2
I-2
I-2
I0
I-2
I-4
I-4
I-4
I-4
I-4
tp1066
(I-4
I-4
I-4
I-4
I-4
I-2
I-2
I-2
I-2
I-2
I-2
I-2
I-2
I-2
I-4
I-4
I-4
I-4
I-4
tp1067
(I-4
I-4
I-4
I-4
I-4
I-2
I-2
I-2
I-2
I-2
I-2
I-2
I-2
I-2
I-4
I-4
I-4
I-4
I-4
tp1068
(I-4
I-4
I-4
I-4
I-4
I-4
I-4
I-4
I-4
I-4
I-4
I-4
I-4
I-4
I-4
I-4
I-4
I-4
I-4
tp1069
tp1070
(I10
I12
tp1071
I14
I19
tp1072
g40
tp1073
I0
s(g370
g135
tp1074
F0.75125
s(g765
g481
tp1075
F0.09902814523728845
s(g747
g78
tp1076
F0.025
s(g765
g280
tp1077
I0
s(g979
g135
tp1078
F1.109702629357578
s(g519
g116
tp1079
I0
s(g207
g135
tp1080
I0
s(g803
g481
tp1081
F0.010866416614964923
s(g711
g78
tp1082
I0
s(g555
g59
tp1083
I0
s(g693
g135
tp1084
F1.0971203145898438
s((((I-4
I-4
I-4
I-4
I-4
I-4
I-4
I-4
I-4
I-4
I-4
I-4
I-4
I-4
I-4
I-4
I-4
I-4
I-4
tp1085
(I-4
I-4
I-4
I-4
I-4
I-2
I-2
I-2
I-4
I1
I-4
I-2
I-2
I-2
I-4
I-4
I-4
I-4
I-4
tp1086
(I-4
I-4
I-4
I-4
I-4
I-2
I-2
I-2
I-4
I-4
I-4
I-2
I-2
I-2
I-4
I-4
I-4
I-4
I-4
tp1087
(I-4
I-4
I-4
I-4
I-4
I-2
I-2
I-2
I-2
I-2
I-2
I-2
I-2
I-2
I-4
I-4
I-4
I-4
I-4
tp1088
(I-4
I-4
I-4
I-4
I-4
I-2
I-2
I-2
I-2
I-2
I-2
I-2
I-2
I-2
I-4
I-4
I-4
I-4
I-4
tp1089
(I-4
I-4
I-4
I-4
I-4
I-2
I-2
I-2
I-2
I-2
I0
I-2
I-2
I-2
I-4
I-4
I-4
I-4
I-4
tp1090
(I-4
I-4
I-4
I-4
I-4
I-2
I-2
I-2
I-2
I-2
I-2
I-2
I-2
I-2
I-4
I-4
I-4
I-4
I-4
tp1091
(I-4
I-4
I-4
I-4
I-4
I-2
I-2
I-2
I-2
I-2
I-2
I-2
I-2
I-2
I-4
I-4
I-4
I-4
I-4
tp1092
(I-4
I-4
I-4
I-4
I-4
I-2
I-2
I-2
I-2
I-2
I-2
I-2
I-2
I-2
I-4
I-4
I-4
I-4
I-4
tp1093
(I-4
I-4
I-4
I-4
I-4
I-2
I-2
I-2
I-2
I-2
I-2
I-2
I-2
I-2
I-4
I-4
I-4
I-4
I-4
tp1094
(I-4
I-4
I-4
I-4
I-4
I-2
I-2
I-2
I-2
I-2
I-2
I-2
I-2
I-2
I-4
I-4
I-4
I-4
I-4
tp1095
(I-4
I-4
I-4
I-4
I-4
I-2
I-2
I-2
I-2
I-2
I-2
I-2
I-2
I-2
I-4
I-4
I-4
I-4
I-4
tp1096
(I-4
I-4
I-4
I-4
I-4
I-2
I-2
I-2
I-2
I-2
I-2
I-2
I-2
I-2
I-4
I-4
I-4
I-4
I-4
tp1097
(I-4
I-4
I-4
I-4
I-4
I-4
I-4
I-4
I-4
I-4
I-4
I-4
I-4
I-4
I-4
I-4
I-4
I-4
I-4
tp1098
tp1099
(I5
I10
tp1100
I14
I19
tp1101
g21
tp1102
F0.11009515788225681
s(g537
g59
tp1103
F0.0
s(g901
g135
tp1104
I0
s((((I-4
I-4
I-4
I-4
I-4
I-4
I-4
I-4
I-4
I-4
I-4
I-4
I-4
I-4
I-4
I-4
I-4
I-4
I-4
tp1105
(I-4
I-4
I-4
I-4
I-4
I-2
I-2
I-2
I-4
I1
I-4
I-2
I-2
I-2
I-4
I-4
I-4
I-4
I-4
tp1106
(I-4
I-4
I-4
I-4
I-4
I-2
I-2
I-2
I-4
I-4
I-4
I-2
I-2
I-2
I-4
I-4
I-4
I-4
I-4
tp1107
(I-4
I-4
I-2
I-4
I-4
I-2
I-2
I-2
I-2
I-2
I-2
I-2
I-2
I-2
I-4
I-4
I-4
I-4
I-4
tp1108
(I-4
I-2
I-4
I-4
I-4
I-2
I-2
I-2
I-2
I-2
I-2
I-2
I-2
I-2
I-4
I-4
I-4
I-4
I-4
tp1109
(I-4
I-2
I-4
I-4
I-4
I-2
I-2
I-2
I-2
I-2
I-2
I-2
I-2
I-2
I-4
I-4
I-4
I-4
I-4
tp1110
(I-4
I-4
I-4
I-4
I-4
I-2
I-2
I-2
I-2
I-2
I-2
I-2
I-2
I-2
I-4
I-4
I-4
I-4
I-4
tp1111
(I-4
I-4
I-4
I-4
I-4
I-2
I-2
I-2
I-2
I-2
I-2
I-2
I-2
I-2
I-4
I-4
I-4
I-4
I-4
tp1112
(I-4
I-4
I-4
I-4
I-4
I-2
I-2
I-2
I-2
I-2
I-2
I-2
I-2
I-2
I-4
I-4
I-4
I-4
I-4
tp1113
(I-4
I-4
I-4
I-4
I-4
I-2
I-2
I-2
I-2
I-2
I-2
I-2
I-2
I-2
I-4
I-4
I-4
I-4
I-4
tp1114
(I-4
I-4
I-4
I-4
I-4
I-2
I-2
I-2
I-2
I-2
I-2
I-2
I-2
I-2
I-4
I-4
I-4
I-4
I-4
tp1115
(I-4
I-4
I-4
I-4
I-4
I-2
I-2
I-2
I-2
I-2
I-2
I-2
I-2
I-2
I-4
I-4
I-4
I-4
I-4
tp1116
(I-4
I-4
I-4
I-4
I-4
I-2
I-2
I-2
I-2
I-2
I-2
I-2
I-2
I0
I-4
I-4
I-4
I-4
I-4
tp1117
(I-4
I-4
I-4
I-4
I-4
I-4
I-4
I-4
I-4
I-4
I-4
I-4
I-4
I-4
I-4
I-4
I-4
I-4
I-4
tp1118
tp1119
(I12
I13
tp1120
I14
I19
tp1121
g59
tp1122
F0.009908203125000003
s((((I-4
I-4
I-4
I-4
I-4
I-4
I-4
I-4
I-4
I-4
I-4
I-4
I-4
I-4
I-4
I-4
I-4
I-4
I-4
tp1123
(I-4
I-4
I-4
I-4
I-4
I-2
I-2
I-2
I-4
I1
I-4
I-2
I-2
I-2
I-4
I-4
I-4
I-4
I-4
tp1124
(I-4
I-4
I-4
I-4
I-4
I-2
I-2
I-2
I-4
I-4
I-4
I-2
I-2
I-2
I-4
I-4
I-4
I-4
I-4
tp1125
(I-4
I-4
I-4
I-4
I-4
I-2
I-2
I-2
I-2
I-2
I-2
I-2
I-2
I-2
I-4
I-4
I-4
I-4
I-4
tp1126
(I-4
I-4
I-4
I-4
I-4
I-2
I-2
I-2
I-2
I-2
I-2
I-2
I-2
I-2
I-4
I-4
I-4
I-4
I-4
tp1127
(I-4
I-4
I-4
I-4
I-4
I-2
I-2
I-2
I-2
I-2
I-2
I-2
I-2
I-2
I-4
I-4
I-4
I-4
I-4
tp1128
(I-4
I-4
I-4
I-4
I-4
I-2
I-2
I-2
I-2
I0
I-2
I-2
I-2
I-2
I-4
I-4
I-4
I-4
I-4
tp1129
(I-4
I-4
I-4
I-4
I-4
I-2
I-2
I-2
I-2
I-2
I-2
I-2
I-2
I-2
I-4
I-4
I-4
I-4
I-4
tp1130
(I-4
I-4
I-4
I-4
I-4
I-2
I-2
I-2
I-2
I-2
I-2
I-2
I-2
I-2
I-4
I-4
I-4
I-4
I-4
tp1131
(I-4
I-4
I-4
I-4
I-4
I-2
I-2
I-2
I-2
I-2
I-2
I-2
I-2
I-2
I-4
I-4
I-4
I-4
I-4
tp1132
(I-4
I-4
I-4
I-4
I-4
I-2
I-2
I-2
I-2
I-2
I-2
I-2
I-2
I-2
I-4
I-4
I-4
I-4
I-4
tp1133
(I-4
I-4
I-4
I-4
I-4
I-2
I-2
I-2
I-2
I-2
I-2
I-2
I-2
I-2
I-4
I-4
I-4
I-4
I-4
tp1134
(I-4
I-4
I-4
I-4
I-4
I-2
I-2
I-2
I-2
I-2
I-2
I-2
I-2
I-2
I-4
I-4
I-4
I-4
I-4
tp1135
(I-4
I-4
I-4
I-4
I-4
I-4
I-4
I-4
I-4
I-4
I-4
I-4
I-4
I-4
I-4
I-4
I-4
I-4
I-4
tp1136
tp1137
(I6
I9
tp1138
I14
I19
tp1139
g481
tp1140
I0
s(g883
g481
tp1141
I0
s(g96
g280
tp1142
I0
s(g901
g78
tp1143
F0.0
s(g634
g40
tp1144
F0.0
s(g923
g40
tp1145
F0.0
s(g1139
g280
tp1146
F0.11007558376362957
s(g499
g59
tp1147
I0
s(g673
g78
tp1148
I0
s(g960
g59
tp1149
F0.009908203125000003
s(g923
g59
tp1150
I0
s((((I-4
I-4
I-4
I-4
I-4
I-4
I-4
I-4
I-4
I-4
I-4
I-4
I-4
I-4
I-4
I-4
I-4
I-4
I-4
tp1151
(I-4
I-4
I-4
I-4
I-4
I-2
I-2
I-2
I-4
I1
I-4
I-2
I-2
I-2
I-4
I-4
I-4
I-4
I-4
tp1152
(I-4
I-2
I-4
I-4
I-4
I-2
I-2
I-2
I-4
I-4
I-4
I-2
I-2
I-2
I-4
I-4
I-4
I-4
I-4
tp1153
(I-4
I-2
I-2
I-4
I-4
I-2
I-2
I-2
I-2
I-2
I-2
I-2
I-2
I-2
I-4
I-4
I-4
I-4
I-4
tp1154
(I-2
I-2
I-4
I-4
I-4
I-2
I-2
I-2
I-2
I-2
I-2
I-2
I-2
I-2
I-4
I-4
I-4
I-4
I-4
tp1155
(I-2
I-2
I-4
I-4
I-4
I-2
I-2
I-2
I-2
I-2
I-2
I-2
I-2
I-2
I-4
I-4
I-4
I-4
I-2
tp1156
(I-2
I-4
I-4
I-4
I-4
I-2
I-2
I-2
I-2
I-2
I-2
I-2
I-2
I-2
I-4
I-4
I-4
I-4
I-4
tp1157
(I-4
I-4
I-4
I-4
I-4
I-2
I-2
I-2
I-2
I-2
I-2
I-2
I-2
I-2
I-4
I-4
I-4
I-4
I-4
tp1158
(I-4
I-4
I-4
I-4
I-4
I-2
I-2
I-2
I-2
I-2
I-2
I-2
I-2
I-2
I-4
I-4
I-4
I-4
I-4
tp1159
(I-4
I-4
I-4
I-4
I-4
I-2
I-2
I-2
I-2
I-2
I-2
I-2
I-2
I-2
I-4
I-4
I-4
I-4
I-4
tp1160
(I-4
I-4
I-4
I-4
I-4
I-2
I-2
I-2
I-2
I-2
I-2
I-2
I-2
I-2
I-4
I-4
I-4
I-4
I-4
tp1161
(I-4
I-4
I-4
I-4
I-4
I-2
I-2
I-2
I-2
I-2
I-2
I-2
I-2
I-2
I-4
I-4
I-4
I-4
I-4
tp1162
(I-4
I-4
I-4
I-4
I-4
I-2
I-2
I-2
I-2
I-2
I-2
I-2
I0
I-2
I-4
I-4
I-4
I-4
I-4
tp1163
(I-4
I-4
I-4
I-4
I-4
I-4
I-4
I-4
I-4
I-4
I-4
I-4
I-4
I-4
I-4
I-4
I-4
I-4
I-4
tp1164
tp1165
(I12
I12
tp1166
I14
I19
tp1167
g135
tp1168
I0
s((((I-4
I-4
I-4
I-4
I-4
I-4
I-4
I-4
I-4
I-4
I-4
I-4
I-4
I-4
I-4
I-4
I-4
I-4
I-4
tp1169
(I-4
I-4
I-4
I-4
I-4
I-2
I-2
I-2
I-4
I1
I-4
I-2
I-2
I-2
I-4
I-4
I-4
I-4
I-4
tp1170
(I-4
I-4
I-4
I-4
I-4
I-2
I-2
I-2
I-4
I-4
I-4
I-2
I-2
I-2
I-4
I-4
I-4
I-4
I-4
tp1171
(I-4
I-4
I-2
I-4
I-4
I-2
I-2
I-2
I-2
I-2
I-2
I-2
I-2
I-2
I-4
I-4
I-4
I-4
I-4
tp1172
(I-4
I-2
I-4
I-4
I-4
I-2
I-2
I-2
I-2
I-2
I-2
I-2
I-2
I-2
I-4
I-4
I-4
I-4
I-4
tp1173
(I-4
I-2
I-4
I-4
I-4
I-2
I-2
I-2
I-2
I-2
I-2
I-2
I-2
I-2
I-4
I-4
I-4
I-4
I-4
tp1174
(I-4
I-4
I-4
I-4
I-4
I-2
I-2
I-2
I-2
I-2
I-2
I-2
I-2
I-2
I-4
I-4
I-4
I-4
I-4
tp1175
(I-4
I-4
I-4
I-4
I-4
I-2
I-2
I-2
I-2
I-2
I-2
I-2
I-2
I-2
I-4
I-4
I-4
I-4
I-4
tp1176
(I-4
I-4
I-4
I-4
I-4
I-2
I-2
I-2
I-2
I-2
I-2
I-2
I-2
I-2
I-4
I-4
I-4
I-4
I-4
tp1177
(I-4
I-4
I-4
I-4
I-4
I-2
I-2
I-2
I-2
I-2
I-2
I0
I-2
I-2
I-4
I-4
I-4
I-4
I-4
tp1178
(I-4
I-4
I-4
I-4
I-4
I-2
I-2
I-2
I-2
I-2
I-2
I-2
I-2
I-2
I-4
I-4
I-4
I-4
I-4
tp1179
(I-4
I-4
I-4
I-4
I-4
I-2
I-2
I-2
I-2
I-2
I-2
I-2
I-2
I-2
I-4
I-4
I-4
I-4
I-4
tp1180
(I-4
I-4
I-4
I-4
I-4
I-2
I-2
I-2
I-2
I-2
I-2
I-2
I-2
I-2
I-4
I-4
I-4
I-4
I-4
tp1181
(I-4
I-4
I-4
I-4
I-4
I-4
I-4
I-4
I-4
I-4
I-4
I-4
I-4
I-4
I-4
I-4
I-4
I-4
I-4
tp1182
tp1183
(I9
I11
tp1184
I14
I19
tp1185
g40
tp1186
I0
s(g243
g40
tp1187
I0
s(g171
g40
tp1188
I0
s((((I-4
I-4
I-4
I-4
I-4
I-4
I-4
I-4
I-4
I-4
I-4
I-4
I-4
I-4
I-4
I-4
I-4
I-4
I-4
tp1189
(I-4
I-4
I-4
I-4
I-4
I-2
I-2
I-2
I-4
I1
I-4
I-2
I-2
I-2
I-4
I-4
I-4
I-4
I-4
tp1190
(I-4
I-4
I-4
I-4
I-4
I-2
I-2
I-2
I-4
I-4
I-4
I-2
I-2
I-2
I-4
I-4
I-4
I-4
I-4
tp1191
(I-4
I-4
I-4
I-4
I-4
I-2
I-2
I-2
I-2
I-2
I-2
I-2
I-2
I-2
I-4
I-4
I-4
I-4
I-4
tp1192
(I-4
I-4
I-4
I-4
I-4
I-2
I-2
I-2
I-2
I-2
I-2
I-2
I-2
I-2
I-4
I-4
I-4
I-4
I-4
tp1193
(I-4
I-4
I-4
I-4
I-4
I-2
I-2
I-2
I-2
I-2
I-2
I-2
I-2
I-2
I-4
I-4
I-4
I-4
I-4
tp1194
(I-4
I-4
I-4
I-4
I-4
I-2
I-2
I-2
I-2
I-2
I-2
I-2
I-2
I-2
I-4
I-4
I-4
I-4
I-4
tp1195
(I-4
I-4
I-4
I-4
I-4
I-2
I-2
I-2
I-2
I-2
I0
I-2
I-2
I-2
I-4
I-4
I-4
I-4
I-4
tp1196
(I-4
I-4
I-4
I-4
I-4
I-2
I-2
I-2
I-2
I-2
I-2
I-2
I-2
I-2
I-4
I-4
I-4
I-4
I-4
tp1197
(I-4
I-4
I-4
I-4
I-4
I-2
I-2
I-2
I-2
I-2
I-2
I-2
I-2
I-2
I-4
I-4
I-4
I-4
I-4
tp1198
(I-4
I-4
I-4
I-4
I-4
I-2
I-2
I-2
I-2
I-2
I-2
I-2
I-2
I-2
I-4
I-4
I-4
I-4
I-4
tp1199
(I-4
I-4
I-4
I-4
I-4
I-2
I-2
I-2
I-2
I-2
I-2
I-2
I-2
I-2
I-4
I-4
I-4
I-4
I-4
tp1200
(I-4
I-4
I-4
I-4
I-4
I-2
I-2
I-2
I-2
I-2
I-2
I-2
I-2
I-2
I-4
I-4
I-4
I-4
I-4
tp1201
(I-4
I-4
I-4
I-4
I-4
I-4
I-4
I-4
I-4
I-4
I-4
I-4
I-4
I-4
I-4
I-4
I-4
I-4
I-4
tp1202
tp1203
(I7
I10
tp1204
I14
I19
tp1205
g59
tp1206
F0.0
s(g979
g78
tp1207
I0
s(g225
g40
tp1208
F0.009824750854798035
s(g693
g40
tp1209
F0.0
s(g999
g481
tp1210
I0
s((((I-4
I-4
I-4
I-4
I-4
I-4
I-4
I-4
I-4
I-4
I-4
I-4
I-4
I-4
I-4
I-4
I-4
I-4
I-4
tp1211
(I-4
I-4
I-4
I-4
I-4
I-2
I-2
I-2
I-4
I1
I-4
I-2
I-2
I-2
I-4
I-4
I-4
I-4
I-4
tp1212
(I-4
I-4
I-4
I-4
I-4
I-2
I-2
I-2
I-4
I-4
I-4
I-2
I-2
I-2
I-4
I-4
I-4
I-4
I-4
tp1213
(I-4
I-4
I-2
I-4
I-4
I-2
I-2
I-2
I-2
I-2
I-2
I-2
I-2
I-2
I-4
I-4
I-4
I-4
I-4
tp1214
(I-4
I-2
I-4
I-4
I-4
I-2
I-2
I-2
I-2
I-2
I-2
I-2
I-2
I-2
I-4
I-4
I-4
I-4
I-4
tp1215
(I-4
I-2
I-4
I-4
I-4
I-2
I-2
I-2
I-2
I-2
I-2
I-2
I-2
I-2
I-4
I-4
I-4
I-4
I-4
tp1216
(I-4
I-4
I-4
I-4
I-4
I-2
I-2
I-2
I-2
I-2
I-2
I-2
I-2
I-2
I-4
I-4
I-4
I-4
I-4
tp1217
(I-4
I-4
I-4
I-4
I-4
I-2
I-2
I-2
I-2
I-2
I-2
I-2
I-2
I-2
I-4
I-4
I-4
I-4
I-4
tp1218
(I-4
I-4
I-4
I-4
I-4
I-2
I-2
I-2
I-2
I-2
I-2
I-2
I-2
I-2
I-4
I-4
I-4
I-4
I-4
tp1219
(I-4
I-4
I-4
I-4
I-4
I-2
I-2
I-2
I-2
I-2
I-2
I-2
I-2
I-2
I-4
I-4
I-4
I-4
I-4
tp1220
(I-4
I-4
I-4
I-4
I-4
I-2
I-2
I-2
I-2
I-2
I-2
I-2
I-2
I-2
I-4
I-4
I-4
I-4
I-4
tp1221
(I-4
I-4
I-4
I-4
I-4
I-2
I-2
I-2
I-2
I-2
I-2
I-2
I-2
I-2
I-4
I-4
I-4
I-4
I-4
tp1222
(I-4
I-4
I-4
I-4
I-4
I-2
I-2
I-2
I-2
I-2
I-2
I-2
I0
I-2
I-4
I-4
I-4
I-4
I-4
tp1223
(I-4
I-4
I-4
I-4
I-4
I-4
I-4
I-4
I-4
I-4
I-4
I-4
I-4
I-4
I-4
I-4
I-4
I-4
I-4
tp1224
tp1225
(I12
I12
tp1226
I14
I19
tp1227
g135
tp1228
I0
s(g999
g280
tp1229
F0.09947426453356925
s((((I-4
I-4
I-4
I-4
I-4
I-4
I-4
I-4
I-4
I-4
I-4
I-4
I-4
I-4
I-4
I-4
I-4
I-4
I-4
tp1230
(I-4
I-4
I-4
I-4
I-4
I-2
I-2
I-2
I-4
I1
I-4
I-2
I-2
I-2
I-4
I-4
I-4
I-4
I-4
tp1231
(I-4
I-4
I-4
I-4
I-4
I-2
I-2
I-2
I-4
I-4
I-4
I-2
I-2
I-2
I-4
I-4
I-4
I-4
I-4
tp1232
(I-4
I-4
I-4
I-4
I-4
I-2
I-2
I-2
I-2
I-2
I-2
I-2
I-2
I-2
I-4
I-4
I-4
I-4
I-4
tp1233
(I-4
I-2
I-4
I-4
I-4
I-2
I-2
I-2
I-2
I-2
I-2
I-2
I-2
I-2
I-4
I-4
I-4
I-4
I-4
tp1234
(I-4
I-4
I-4
I-4
I-4
I-2
I-2
I-2
I-2
I-2
I-2
I-2
I-2
I-2
I-4
I-4
I-4
I-4
I-4
tp1235
(I-4
I-4
I-4
I-4
I-4
I-2
I-2
I-2
I-2
I-2
I-2
I-2
I-2
I-2
I-4
I-4
I-4
I-4
I-4
tp1236
(I-4
I-4
I-4
I-4
I-4
I-2
I-2
I-2
I-2
I-2
I-2
I-2
I-2
I-2
I-4
I-4
I-4
I-4
I-4
tp1237
(I-4
I-4
I-4
I-4
I-4
I-2
I-2
I-2
I-2
I0
I-2
I-2
I-2
I-2
I-4
I-4
I-4
I-4
I-4
tp1238
(I-4
I-4
I-4
I-4
I-4
I-2
I-2
I-2
I-2
I-2
I-2
I-2
I-2
I-2
I-4
I-4
I-4
I-4
I-4
tp1239
(I-4
I-4
I-4
I-4
I-4
I-2
I-2
I-2
I-2
I-2
I-2
I-2
I-2
I-2
I-4
I-4
I-4
I-4
I-4
tp1240
(I-4
I-4
I-4
I-4
I-4
I-2
I-2
I-2
I-2
I-2
I-2
I-2
I-2
I-2
I-4
I-4
I-4
I-4
I-4
tp1241
(I-4
I-4
I-4
I-4
I-4
I-2
I-2
I-2
I-2
I-2
I-2
I-2
I-2
I-2
I-4
I-4
I-4
I-4
I-4
tp1242
(I-4
I-4
I-4
I-4
I-4
I-4
I-4
I-4
I-4
I-4
I-4
I-4
I-4
I-4
I-4
I-4
I-4
I-4
I-4
tp1243
tp1244
(I8
I9
tp1245
I14
I19
tp1246
g135
tp1247
I0
s((((I-4
I-4
I-4
I-4
I-4
I-4
I-4
I-4
I-4
I-4
I-4
I-4
I-4
I-4
I-4
I-4
I-4
I-4
I-4
tp1248
(I-4
I-4
I-4
I-4
I-4
I-2
I-2
I-2
I-4
I1
I-4
I-2
I-2
I-2
I-4
I-4
I-4
I-4
I-4
tp1249
(I-4
I-4
I-4
I-4
I-4
I-2
I-2
I-2
I-4
I-4
I-4
I-2
I-2
I-2
I-4
I-4
I-4
I-4
I-4
tp1250
(I-4
I-4
I-4
I-4
I-4
I-2
I-2
I-2
I-2
I-2
I-2
I-2
I-2
I-2
I-4
I-4
I-4
I-4
I-4
tp1251
(I-4
I-4
I-4
I-4
I-4
I-2
I-2
I-2
I-2
I-2
I-2
I-2
I-2
I-2
I-4
I-4
I-4
I-4
I-4
tp1252
(I-4
I-4
I-4
I-4
I-4
I-2
I-2
I-2
I-2
I-2
I-2
I-2
I-2
I-2
I-4
I-4
I-4
I-4
I-4
tp1253
(I-4
I-4
I-4
I-4
I-4
I-2
I-2
I-2
I-2
I-2
I-2
I-2
I-2
I-2
I-4
I-4
I-4
I-4
I-4
tp1254
(I-4
I-4
I-4
I-4
I-4
I-2
I-2
I-2
I-2
I-2
I-2
I-2
I-2
I-2
I-4
I-4
I-4
I-4
I-4
tp1255
(I-4
I-4
I-4
I-4
I-4
I-2
I-2
I-2
I-2
I-2
I-2
I-2
I-2
I-2
I-4
I-4
I-4
I-4
I-4
tp1256
(I-4
I-4
I-4
I-4
I-4
I-2
I-2
I-2
I-2
I-2
I-2
I-2
I-2
I-2
I-4
I-4
I-4
I-4
I-4
tp1257
(I-4
I-4
I-4
I-4
I-4
I-2
I-2
I-2
I-2
I-2
I-2
I-2
I-2
I-2
I-4
I-4
I-4
I-4
I-4
tp1258
(I-4
I-4
I-4
I-4
I-4
I-2
I-2
I-2
I-2
I-2
I-2
I-2
I-2
I-2
I-4
I-4
I-4
I-4
I-4
tp1259
(I-4
I-4
I-4
I-4
I-4
I-2
I-2
I-2
I-2
I-2
I-2
I0
I-2
I-2
I-4
I-4
I-4
I-4
I-4
tp1260
(I-4
I-4
I-4
I-4
I-4
I-4
I-4
I-4
I-4
I-4
I-4
I-4
I-4
I-4
I-4
I-4
I-4
I-4
I-4
tp1261
tp1262
(I12
I11
tp1263
I14
I19
tp1264
g135
tp1265
F0.5
s(g1101
g116
tp1266
F1.0100123323824244
s(g115
g21
tp1267
I0
s((((I-4
I-4
I-4
I-4
I-4
I-4
I-4
I-4
I-4
I-4
I-4
I-4
I-4
I-4
I-4
I-4
I-4
I-4
I-4
tp1268
(I-4
I-4
I-4
I-4
I-4
I-2
I-2
I-2
I-4
I1
I-4
I-2
I-2
I-2
I-4
I-4
I-4
I-4
I-4
tp1269
(I-4
I-4
I-4
I-4
I-4
I-2
I-2
I-2
I-4
I-4
I-4
I-2
I-2
I-2
I-4
I-4
I-4
I-4
I-4
tp1270
(I-4
I-4
I-4
I-4
I-4
I-2
I-2
I-2
I-2
I-2
I-2
I-2
I-2
I-2
I-4
I-4
I-4
I-4
I-4
tp1271
(I-4
I-4
I-4
I-4
I-4
I-2
I-2
I-2
I-2
I-2
I-2
I-2
I-2
I-2
I-4
I-4
I-4
I-4
I-4
tp1272
(I-4
I-4
I-4
I-4
I-4
I-2
I-2
I-2
I-2
I-2
I-2
I-2
I-2
I-2
I-4
I-4
I-4
I-4
I-4
tp1273
(I-4
I-4
I-4
I-4
I-4
I-2
I-2
I-2
I-2
I-2
I-2
I-2
I-2
I-2
I-4
I-4
I-4
I-4
I-4
tp1274
(I-4
I-4
I-4
I-4
I-4
I-2
I-2
I-2
I-2
I-2
I-2
I-2
I-2
I-2
I-4
I-4
I-4
I-4
I-4
tp1275
(I-4
I-4
I-4
I-4
I-4
I-2
I-2
I-2
I-2
I-2
I-2
I-2
I0
I-2
I-4
I-4
I-4
I-4
I-4
tp1276
(I-4
I-4
I-4
I-4
I-4
I-2
I-2
I-2
I-2
I-2
I-2
I-2
I-2
I-2
I-4
I-4
I-4
I-4
I-4
tp1277
(I-4
I-4
I-4
I-4
I-4
I-2
I-2
I-2
I-2
I-2
I-2
I-2
I-2
I-2
I-4
I-4
I-4
I-4
I-4
tp1278
(I-4
I-4
I-4
I-4
I-4
I-2
I-2
I-2
I-2
I-2
I-2
I-2
I-2
I-2
I-4
I-4
I-4
I-4
I-4
tp1279
(I-4
I-4
I-4
I-4
I-4
I-2
I-2
I-2
I-2
I-2
I-2
I-2
I-2
I-2
I-4
I-4
I-4
I-4
I-4
tp1280
(I-4
I-4
I-4
I-4
I-4
I-4
I-4
I-4
I-4
I-4
I-4
I-4
I-4
I-4
I-4
I-4
I-4
I-4
I-4
tp1281
tp1282
(I8
I12
tp1283
I14
I19
tp1284
g40
tp1285
F0.07490858154296876
s((((I-4
I-4
I-4
I-4
I-4
I-4
I-4
I-4
I-4
I-4
I-4
I-4
I-4
I-4
I-4
I-4
I-4
I-4
I-4
tp1286
(I-4
I-4
I-4
I-4
I-4
I-2
I-2
I-2
I-4
I1
I-4
I-2
I-2
I-2
I-4
I-4
I-4
I-4
I-4
tp1287
(I-4
I-4
I-4
I-4
I-4
I-2
I-2
I-2
I-4
I-4
I-4
I-2
I-2
I-2
I-4
I-4
I-4
I-4
I-4
tp1288
(I-4
I-4
I-4
I-4
I-4
I-2
I-2
I-2
I-2
I-2
I-2
I-2
I-2
I-2
I-4
I-4
I-4
I-4
I-4
tp1289
(I-4
I-4
I-4
I-4
I-4
I-2
I-2
I-2
I-2
I-2
I-2
I-2
I-2
I-2
I-4
I-4
I-4
I-4
I-4
tp1290
(I-4
I-4
I-4
I-4
I-4
I-2
I-2
I-2
I-2
I-2
I-2
I-2
I-2
I-2
I-4
I-4
I-4
I-4
I-4
tp1291
(I-4
I-4
I-4
I-4
I-4
I-2
I-2
I-2
I-2
I-2
I-2
I-2
I-2
I-2
I-4
I-4
I-4
I-4
I-4
tp1292
(I-4
I-4
I-4
I-4
I-4
I-2
I-2
I-2
I-2
I-2
I-2
I-2
I-2
I-2
I-4
I-4
I-4
I-4
I-4
tp1293
(I-4
I-4
I-4
I-4
I-4
I-2
I-2
I-2
I-2
I-2
I-2
I-2
I-2
I-2
I-4
I-4
I-4
I-4
I-4
tp1294
(I-4
I-4
I-4
I-4
I-4
I-2
I-2
I-2
I-2
I-2
I-2
I-2
I-2
I-2
I-4
I-4
I-4
I-4
I-4
tp1295
(I-4
I-4
I-4
I-4
I-4
I-2
I-2
I-2
I-2
I-2
I0
I-2
I-2
I-2
I-4
I-4
I-4
I-4
I-4
tp1296
(I-4
I-4
I-4
I-4
I-4
I-2
I-2
I-2
I-2
I-2
I-2
I-2
I-2
I-2
I-4
I-4
I-4
I-4
I-4
tp1297
(I-4
I-4
I-4
I-4
I-4
I-2
I-2
I-2
I-2
I-2
I-2
I-2
I-2
I-2
I-4
I-4
I-4
I-4
I-4
tp1298
(I-4
I-4
I-4
I-4
I-4
I-4
I-4
I-4
I-4
I-4
I-4
I-4
I-4
I-4
I-4
I-4
I-4
I-4
I-4
tp1299
tp1300
(I10
I10
tp1301
I14
I19
tp1302
g135
tp1303
I0
s((((I-4
I-4
I-4
I-4
I-4
I-4
I-4
I-4
I-4
I-4
I-4
I-4
I-4
I-4
I-4
I-4
I-4
I-4
I-4
tp1304
(I-4
I-4
I-4
I-4
I-4
I-2
I-2
I-2
I-4
I1
I-4
I-2
I-2
I-2
I-4
I-4
I-4
I-4
I-4
tp1305
(I-4
I-4
I-4
I-4
I-4
I-2
I-2
I-2
I-4
I-4
I-4
I-2
I-2
I-2
I-4
I-4
I-4
I-4
I-4
tp1306
(I-4
I-4
I-4
I-4
I-4
I-2
I-2
I-2
I-2
I-2
I-2
I-2
I-2
I-2
I-4
I-4
I-4
I-4
I-4
tp1307
(I-4
I-4
I-4
I-4
I-4
I-2
I-2
I-2
I-2
I-2
I-2
I-2
I-2
I-2
I-4
I-4
I-4
I-4
I-4
tp1308
(I-4
I-4
I-4
I-4
I-4
I-2
I-2
I-2
I-2
I-2
I-2
I-2
I-2
I-2
I-4
I-4
I-4
I-4
I-4
tp1309
(I-4
I-4
I-4
I-4
I-4
I-2
I-2
I-2
I-2
I-2
I-2
I-2
I-2
I-2
I-4
I-4
I-4
I-4
I-4
tp1310
(I-4
I-4
I-4
I-4
I-4
I-2
I-2
I-2
I-2
I-2
I-2
I-2
I-2
I-2
I-4
I-4
I-4
I-4
I-4
tp1311
(I-4
I-4
I-4
I-4
I-4
I-2
I-2
I-2
I-2
I-2
I-2
I-2
I-2
I-2
I-4
I-4
I-4
I-4
I-4
tp1312
(I-4
I-4
I-4
I-4
I-4
I-2
I-2
I-2
I-2
I-2
I-2
I-2
I-2
I-2
I-4
I-4
I-4
I-4
I-4
tp1313
(I-4
I-4
I-4
I-4
I-4
I-2
I-2
I-2
I-2
I-2
I-2
I-2
I-2
I-2
I-4
I-4
I-4
I-4
I-4
tp1314
(I-4
I-4
I-4
I-4
I-4
I-2
I-2
I-2
I-2
I-2
I-2
I-2
I-2
I0
I-4
I-4
I-4
I-4
I-4
tp1315
(I-4
I-4
I-4
I-4
I-4
I-2
I-2
I-2
I-2
I-2
I-2
I-2
I-2
I-2
I-4
I-4
I-4
I-4
I-4
tp1316
(I-4
I-4
I-4
I-4
I-4
I-4
I-4
I-4
I-4
I-4
I-4
I-4
I-4
I-4
I-4
I-4
I-4
I-4
I-4
tp1317
tp1318
(I11
I13
tp1319
I14
I19
tp1320
g135
tp1321
F1.0107845352253397
s((((I-4
I-4
I-4
I-4
I-4
I-4
I-4
I-4
I-4
I-4
I-4
I-4
I-4
I-4
I-4
I-4
I-4
I-4
I-4
tp1322
(I-4
I-4
I-4
I-4
I-4
I-2
I-2
I-2
I-4
I1
I-4
I-2
I-2
I-2
I-4
I-4
I-4
I-4
I-4
tp1323
(I-4
I-4
I-4
I-4
I-4
I-2
I-2
I-2
I-4
I-4
I-4
I-2
I-2
I-2
I-4
I-4
I-4
I-4
I-4
tp1324
(I-4
I-4
I-4
I-4
I-4
I-2
I-2
I-2
I-2
I-2
I-2
I-2
I-2
I-2
I-4
I-4
I-4
I-4
I-4
tp1325
(I-4
I-4
I-4
I-4
I-4
I-2
I-2
I-2
I-2
I-2
I-2
I-2
I-2
I-2
I-4
I-4
I-4
I-4
I-4
tp1326
(I-4
I-4
I-4
I-4
I-4
I-2
I-2
I-2
I-2
I-2
I-2
I-2
I-2
I-2
I-4
I-4
I-4
I-4
I-4
tp1327
(I-4
I-4
I-4
I-4
I-4
I-2
I-2
I-2
I-2
I-2
I-2
I-2
I-2
I-2
I-4
I-4
I-4
I-4
I-4
tp1328
(I-4
I-4
I-4
I-4
I-4
I-2
I-2
I-2
I-2
I-2
I-2
I-2
I-2
I-2
I-4
I-4
I-4
I-4
I-4
tp1329
(I-4
I-4
I-4
I-4
I-4
I-2
I-2
I-2
I-2
I-2
I-2
I-2
I-2
I-2
I-4
I-4
I-4
I-4
I-4
tp1330
(I-4
I-4
I-4
I-4
I-4
I-2
I-2
I-2
I-2
I-2
I-2
I-2
I-2
I-2
I-4
I-4
I-4
I-4
I-4
tp1331
(I-4
I-4
I-4
I-4
I-4
I-2
I-2
I-2
I-2
I-2
I-2
I-2
I-2
I-2
I-4
I-4
I-4
I-4
I-4
tp1332
(I-4
I-4
I-4
I-4
I-4
I-2
I-2
I-2
I-2
I-2
I-2
I-2
I-2
I-2
I-4
I-4
I-4
I-4
I-4
tp1333
(I-4
I-4
I-4
I-4
I-4
I-2
I-2
I-2
I-2
I-2
I-2
I-2
I0
I-2
I-4
I-4
I-4
I-4
I-4
tp1334
(I-4
I-4
I-4
I-4
I-4
I-4
I-4
I-4
I-4
I-4
I-4
I-4
I-4
I-4
I-4
I-4
I-4
I-4
I-4
tp1335
tp1336
(I12
I12
tp1337
I14
I19
tp1338
g40
tp1339
F0.0
s(g655
g481
tp1340
I0
s(g747
g135
tp1341
I0
s(g783
g135
tp1342
I0
s(g1101
g481
tp1343
I0
s(g39
g135
tp1344
F0.5
s(g1139
g21
tp1345
I0
s(g153
g59
tp1346
I0
s((((I-4
I-4
I-4
I-4
I-4
I-4
I-4
I-4
I-4
I-4
I-4
I-4
I-4
I-4
I-4
I-4
I-4
I-4
I-4
tp1347
(I-4
I-4
I-4
I-4
I-4
I-2
I-2
I-2
I-4
I1
I-4
I-2
I-2
I-2
I-4
I-4
I-4
I-4
I-4
tp1348
(I-4
I-4
I-4
I-4
I-4
I-2
I-2
I-2
I-4
I-4
I-4
I-2
I-2
I-2
I-4
I-4
I-4
I-4
I-4
tp1349
(I-4
I-4
I-4
I-4
I-4
I-2
I-2
I-2
I-2
I-2
I-2
I-2
I-2
I-2
I-4
I-4
I-4
I-4
I-4
tp1350
(I-4
I-4
I-4
I-4
I-4
I-2
I-2
I-2
I-2
I-2
I-2
I-2
I-2
I-2
I-4
I-4
I-4
I-4
I-4
tp1351
(I-4
I-4
I-4
I-4
I-4
I-2
I-2
I-2
I-2
I-2
I-2
I-2
I-2
I-2
I-4
I-4
I-4
I-4
I-4
tp1352
(I-4
I-4
I-4
I-4
I-4
I-2
I-2
I-2
I-2
I-2
I-2
I-2
I-2
I-2
I-4
I-4
I-4
I-4
I-4
tp1353
(I-4
I-4
I-4
I-4
I-4
I-2
I-2
I-2
I-2
I-2
I-2
I-2
I-2
I0
I-4
I-4
I-4
I-4
I-4
tp1354
(I-4
I-4
I-4
I-4
I-4
I-2
I-2
I-2
I-2
I-2
I-2
I-2
I-2
I-2
I-4
I-4
I-4
I-4
I-4
tp1355
(I-4
I-4
I-4
I-4
I-4
I-2
I-2
I-2
I-2
I-2
I-2
I-2
I-2
I-2
I-4
I-4
I-4
I-4
I-4
tp1356
(I-4
I-4
I-4
I-4
I-4
I-2
I-2
I-2
I-2
I-2
I-2
I-2
I-2
I-2
I-4
I-4
I-4
I-4
I-4
tp1357
(I-4
I-4
I-4
I-4
I-4
I-2
I-2
I-2
I-2
I-2
I-2
I-2
I-2
I-2
I-4
I-4
I-4
I-4
I-4
tp1358
(I-4
I-4
I-4
I-4
I-4
I-2
I-2
I-2
I-2
I-2
I-2
I-2
I-2
I-2
I-4
I-4
I-4
I-4
I-4
tp1359
(I-4
I-4
I-4
I-4
I-4
I-4
I-4
I-4
I-4
I-4
I-4
I-4
I-4
I-4
I-4
I-4
I-4
I-4
I-4
tp1360
tp1361
(I7
I13
tp1362
I14
I19
tp1363
g135
tp1364
F0.5
s((((I-4
I-4
I-4
I-4
I-4
I-4
I-4
I-4
I-4
I-4
I-4
I-4
I-4
I-4
I-4
I-4
I-4
I-4
I-4
tp1365
(I-4
I-4
I-4
I-4
I-4
I-2
I-2
I-2
I-4
I1
I-4
I-2
I-2
I-2
I-4
I-4
I-4
I-4
I-4
tp1366
(I-4
I-4
I-4
I-4
I-4
I-2
I-2
I-2
I-4
I-4
I-4
I-2
I-2
I-2
I-4
I-4
I-4
I-4
I-4
tp1367
(I-4
I-4
I-4
I-4
I-4
I-2
I-2
I-2
I-2
I-2
I-2
I-2
I-2
I-2
I-4
I-4
I-4
I-4
I-4
tp1368
(I-4
I-4
I-4
I-4
I-4
I-2
I-2
I-2
I-2
I-2
I-2
I-2
I-2
I-2
I-4
I-4
I-4
I-4
I-4
tp1369
(I-4
I-4
I-4
I-4
I-4
I-2
I-2
I-2
I-2
I-2
I-2
I-2
I-2
I-2
I-4
I-4
I-4
I-4
I-4
tp1370
(I-4
I-4
I-4
I-4
I-4
I-2
I-2
I-2
I-2
I-2
I-2
I-2
I-2
I-2
I-4
I-4
I-4
I-4
I-4
tp1371
(I-4
I-4
I-4
I-4
I-4
I-2
I-2
I-2
I-2
I-2
I-2
I-2
I-2
I-2
I-4
I-4
I-4
I-4
I-4
tp1372
(I-4
I-4
I-4
I-4
I-4
I-2
I-2
I-2
I-2
I-2
I-2
I-2
I-2
I-2
I-4
I-4
I-4
I-4
I-4
tp1373
(I-4
I-4
I-4
I-4
I-4
I-2
I-2
I-2
I-2
I-2
I-2
I0
I-2
I-2
I-4
I-4
I-4
I-4
I-4
tp1374
(I-4
I-4
I-4
I-4
I-4
I-2
I-2
I-2
I-2
I-2
I-2
I-2
I-2
I-2
I-4
I-4
I-4
I-4
I-4
tp1375
(I-4
I-4
I-4
I-4
I-4
I-2
I-2
I-2
I-2
I-2
I-2
I-2
I-2
I-2
I-4
I-4
I-4
I-4
I-4
tp1376
(I-4
I-4
I-4
I-4
I-4
I-2
I-2
I-2
I-2
I-2
I-2
I-2
I-2
I-2
I-4
I-4
I-4
I-4
I-4
tp1377
(I-4
I-4
I-4
I-4
I-4
I-4
I-4
I-4
I-4
I-4
I-4
I-4
I-4
I-4
I-4
I-4
I-4
I-4
I-4
tp1378
tp1379
(I9
I11
tp1380
I14
I19
tp1381
g40
tp1382
I0
s((((I-4
I-4
I-4
I-4
I-4
I-4
I-4
I-4
I-4
I-4
I-4
I-4
I-4
I-4
I-4
I-4
I-4
I-4
I-4
tp1383
(I-4
I-4
I-4
I-4
I-4
I-2
I-2
I-2
I-4
I1
I-4
I-2
I-2
I-2
I-4
I-4
I-4
I-4
I-4
tp1384
(I-4
I-4
I-4
I-4
I-4
I-2
I-2
I-2
I-4
I-4
I-4
I-2
I-2
I-2
I-4
I-4
I-4
I-4
I-4
tp1385
(I-4
I-4
I-4
I-4
I-4
I-2
I-2
I-2
I-2
I-2
I-2
I-2
I-2
I-2
I-4
I-4
I-4
I-4
I-4
tp1386
(I-4
I-4
I-4
I-4
I-4
I-2
I-2
I-2
I-2
I-2
I-2
I-2
I-2
I-2
I-4
I-4
I-4
I-4
I-4
tp1387
(I-4
I-4
I-4
I-4
I-4
I-2
I-2
I-2
I-2
I-2
I-2
I-2
I-2
I-2
I-4
I-4
I-4
I-4
I-4
tp1388
(I-4
I-4
I-4
I-4
I-4
I-2
I-2
I-2
I-2
I-2
I-2
I-2
I-2
I-2
I-4
I-4
I-4
I-4
I-4
tp1389
(I-4
I-4
I-4
I-4
I-4
I-2
I-2
I-2
I-2
I-2
I-2
I-2
I-2
I-2
I-4
I-4
I-4
I-4
I-4
tp1390
(I-4
I-4
I-4
I-4
I-4
I-2
I-2
I-2
I-2
I-2
I-2
I-2
I-2
I-2
I-4
I-4
I-4
I-4
I-4
tp1391
(I-4
I-4
I-4
I-4
I-4
I-2
I-2
I-2
I-2
I-2
I-2
I-2
I-2
I-2
I-4
I-4
I-4
I-4
I-4
tp1392
(I-4
I-4
I-4
I-4
I-4
I-2
I-2
I-2
I-2
I-2
I-2
I-2
I-2
I0
I-4
I-4
I-4
I-4
I-4
tp1393
(I-4
I-4
I-4
I-4
I-4
I-2
I-2
I-2
I-2
I-2
I-2
I-2
I-2
I-2
I-4
I-4
I-4
I-4
I-4
tp1394
(I-4
I-4
I-4
I-4
I-4
I-2
I-2
I-2
I-2
I-2
I-2
I-2
I-2
I-2
I-4
I-4
I-4
I-4
I-4
tp1395
(I-4
I-4
I-4
I-4
I-4
I-4
I-4
I-4
I-4
I-4
I-4
I-4
I-4
I-4
I-4
I-4
I-4
I-4
I-4
tp1396
tp1397
(I10
I13
tp1398
I14
I19
tp1399
g78
tp1400
F0.10105379181717883
s(g1017
g135
tp1401
I0
s(g1338
g135
tp1402
F0.5
s(g1167
g40
tp1403
F0.098929677734375
s(g1381
g59
tp1404
F0.0
s(g598
g116
tp1405
F1.1094943504035473
s(g1205
g78
tp1406
F0.11070982530255118
s(g580
g78
tp1407
F0.050062499999999996
s(g765
g116
tp1408
I0
s(g1302
g78
tp1409
F0.025
s(g729
g78
tp1410
F0.10068452179034851
s(g279
g481
tp1411
I0
s(g1284
g59
tp1412
F0.025
s(g189
g135
tp1413
I0
s(g1381
g135
tp1414
I0
s(g1338
g59
tp1415
I0
s(g979
g40
tp1416
F0.10086500561790127
s(g999
g116
tp1417
I0
s(g96
g116
tp1418
F0.9987986119831186
s(g39
g59
tp1419
I0
s(g865
g40
tp1420
F0.0
s(g634
g135
tp1421
I0
s((((I-4
I-4
I-4
I-4
I-4
I-4
I-4
I-4
I-4
I-4
I-4
I-4
I-4
I-4
I-4
I-4
I-4
I-4
I-4
tp1422
(I-4
I-4
I-4
I-4
I-4
I-2
I-2
I-2
I-4
I1
I-4
I-2
I-2
I-2
I-4
I-4
I-4
I-4
I-4
tp1423
(I-4
I-4
I-4
I-4
I-4
I-2
I-2
I-2
I-4
I-4
I-4
I-2
I-2
I-2
I-4
I-4
I-4
I-4
I-4
tp1424
(I-4
I-4
I-2
I-4
I-4
I-2
I-2
I-2
I-2
I-2
I-2
I-2
I-2
I-2
I-4
I-4
I-4
I-4
I-4
tp1425
(I-4
I-2
I-4
I-4
I-4
I-2
I-2
I-2
I-2
I-2
I-2
I-2
I-2
I-2
I-4
I-4
I-4
I-4
I-4
tp1426
(I-4
I-4
I-4
I-4
I-4
I-2
I-2
I-2
I-2
I-2
I-2
I-2
I-2
I-2
I-4
I-4
I-4
I-4
I-4
tp1427
(I-4
I-4
I-4
I-4
I-4
I-2
I-2
I-2
I-2
I-2
I-2
I-2
I-2
I-2
I-4
I-4
I-4
I-4
I-4
tp1428
(I-4
I-4
I-4
I-4
I-4
I-2
I-2
I-2
I-2
I-2
I-2
I-2
I-2
I-2
I-4
I-4
I-4
I-4
I-4
tp1429
(I-4
I-4
I-4
I-4
I-4
I-2
I-2
I-2
I-2
I-2
I-2
I-2
I0
I-2
I-4
I-4
I-4
I-4
I-4
tp1430
(I-4
I-4
I-4
I-4
I-4
I-2
I-2
I-2
I-2
I-2
I-2
I-2
I-2
I-2
I-4
I-4
I-4
I-4
I-4
tp1431
(I-4
I-4
I-4
I-4
I-4
I-2
I-2
I-2
I-2
I-2
I-2
I-2
I-2
I-2
I-4
I-4
I-4
I-4
I-4
tp1432
(I-4
I-4
I-4
I-4
I-4
I-2
I-2
I-2
I-2
I-2
I-2
I-2
I-2
I-2
I-4
I-4
I-4
I-4
I-4
tp1433
(I-4
I-4
I-4
I-4
I-4
I-2
I-2
I-2
I-2
I-2
I-2
I-2
I-2
I-2
I-4
I-4
I-4
I-4
I-4
tp1434
(I-4
I-4
I-4
I-4
I-4
I-4
I-4
I-4
I-4
I-4
I-4
I-4
I-4
I-4
I-4
I-4
I-4
I-4
I-4
tp1435
tp1436
(I8
I12
tp1437
I14
I19
tp1438
g116
tp1439
I0
s(g334
g59
tp1440
F0.0
s(g20
g116
tp1441
F0.998046875
s(g1072
g78
tp1442
I0
s(g673
g40
tp1443
F0.10802988283593751
s(g407
g59
tp1444
I0
s(g115
g280
tp1445
I0
s(g1399
g59
tp1446
F0.10967298067938053
s(g1381
g78
tp1447
I0
s(g803
g280
tp1448
F0.11089440117776397
s((((I-4
I-4
I-4
I-4
I-4
I-4
I-4
I-4
I-4
I-4
I-4
I-4
I-4
I-4
I-4
I-4
I-4
I-4
I-4
tp1449
(I-4
I-4
I-4
I-4
I-4
I-2
I-2
I-2
I-4
I1
I-4
I-2
I-2
I-2
I-4
I-4
I-4
I-4
I-4
tp1450
(I-4
I-4
I-4
I-4
I-4
I-2
I-2
I-2
I-4
I-4
I-4
I-2
I-2
I-2
I-4
I-4
I-4
I-4
I-4
tp1451
(I-4
I-4
I-4
I-4
I-4
I-2
I-2
I-2
I-2
I-2
I-2
I-2
I-2
I-2
I-4
I-4
I-4
I-4
I-4
tp1452
(I-4
I-4
I-4
I-4
I-4
I-2
I-2
I-2
I-2
I-2
I-2
I-2
I-2
I-2
I-4
I-4
I-4
I-4
I-4
tp1453
(I-4
I-4
I-4
I-4
I-4
I-2
I-2
I-2
I-2
I-2
I-2
I-2
I-2
I-2
I-4
I-4
I-4
I-4
I-4
tp1454
(I-4
I-4
I-4
I-4
I-4
I-2
I-2
I-2
I-2
I-2
I-2
I-2
I-2
I-2
I-4
I-4
I-4
I-4
I-4
tp1455
(I-4
I-4
I-4
I-4
I-4
I-2
I-2
I-2
I-2
I-2
I-2
I-2
I-2
I-2
I-4
I-4
I-4
I-4
I-4
tp1456
(I-4
I-4
I-4
I-4
I-4
I-2
I-2
I-2
I-2
I-2
I-2
I-2
I-2
I-2
I-4
I-4
I-4
I-4
I-4
tp1457
(I-4
I-4
I-4
I-4
I-4
I-2
I-2
I-2
I-2
I-2
I0
I-2
I-2
I-2
I-4
I-4
I-4
I-4
I-4
tp1458
(I-4
I-4
I-4
I-4
I-4
I-2
I-2
I-2
I-2
I-2
I-2
I-2
I-2
I-2
I-4
I-4
I-4
I-4
I-4
tp1459
(I-4
I-4
I-4
I-4
I-4
I-2
I-2
I-2
I-2
I-2
I-2
I-2
I-2
I-2
I-4
I-4
I-4
I-4
I-4
tp1460
(I-4
I-4
I-4
I-4
I-4
I-2
I-2
I-2
I-2
I-2
I-2
I-2
I-2
I-2
I-4
I-4
I-4
I-4
I-4
tp1461
(I-4
I-4
I-4
I-4
I-4
I-4
I-4
I-4
I-4
I-4
I-4
I-4
I-4
I-4
I-4
I-4
I-4
I-4
I-4
tp1462
tp1463
(I9
I10
tp1464
I14
I19
tp1465
g78
tp1466
I0
s(g673
g135
tp1467
I0
s(g1302
g40
tp1468
I0
s(g580
g59
tp1469
I0
s(g389
g40
tp1470
I0
s(g580
g135
tp1471
I0
s(g1302
g59
tp1472
I0
s(g729
g59
tp1473
F0.0008956820628050748
s(g279
g21
tp1474
F0.09981865707238058
s(g1284
g78
tp1475
F0.11003436179294951
s(g1205
g135
tp1476
F1.1100958238823808
s(g443
g135
tp1477
F1.0098258052274762
s(g537
g78
tp1478
I0
s(g443
g40
tp1479
F0.09995230529785157
s(g370
g40
tp1480
I0
s(g461
g135
tp1481
I0
s(g1264
g59
tp1482
I0
s(g1053
g481
tp1483
I0
s(g865
g135
tp1484
I0
s(g39
g78
tp1485
I0
s(g1465
g40
tp1486
I0
s(g1284
g135
tp1487
F1.0054528106689453
s(g334
g78
tp1488
I0
s(g1035
g40
tp1489
F0.10382812500000002
s(g783
g78
tp1490
F0.0008281305664062501
s(g616
g59
tp1491
I0
s((((I-4
I-4
I-4
I-4
I-4
I-4
I-4
I-4
I-4
I-4
I-4
I-4
I-4
I-4
I-4
I-4
I-4
I-4
I-4
tp1492
(I-4
I-4
I-4
I-4
I-4
I-2
I-2
I-2
I-4
I1
I-4
I-2
I-2
I-2
I-4
I-4
I-4
I-4
I-4
tp1493
(I-4
I-4
I-4
I-4
I-4
I-2
I-2
I-2
I-4
I-4
I-4
I-2
I-2
I-2
I-4
I-4
I-4
I-4
I-4
tp1494
(I-4
I-4
I-4
I-4
I-4
I-2
I-2
I-2
I-2
I-2
I-2
I-2
I-2
I-2
I-4
I-4
I-4
I-4
I-4
tp1495
(I-4
I-4
I-4
I-4
I-4
I-2
I-2
I-2
I-2
I-2
I-2
I-2
I0
I-2
I-4
I-4
I-4
I-4
I-4
tp1496
(I-4
I-4
I-4
I-4
I-4
I-2
I-2
I-2
I-2
I-2
I-2
I-2
I-2
I-2
I-4
I-4
I-4
I-4
I-4
tp1497
(I-4
I-4
I-4
I-4
I-4
I-2
I-2
I-2
I-2
I-2
I-2
I-2
I-2
I-2
I-4
I-4
I-4
I-4
I-4
tp1498
(I-4
I-4
I-4
I-4
I-4
I-2
I-2
I-2
I-2
I-2
I-2
I-2
I-2
I-2
I-4
I-4
I-4
I-4
I-4
tp1499
(I-4
I-4
I-4
I-4
I-4
I-2
I-2
I-2
I-2
I-2
I-2
I-2
I-2
I-2
I-4
I-4
I-4
I-4
I-4
tp1500
(I-4
I-4
I-4
I-4
I-4
I-2
I-2
I-2
I-2
I-2
I-2
I-2
I-2
I-2
I-4
I-4
I-4
I-4
I-4
tp1501
(I-4
I-4
I-4
I-4
I-4
I-2
I-2
I-2
I-2
I-2
I-2
I-2
I-2
I-2
I-4
I-4
I-4
I-4
I-4
tp1502
(I-4
I-4
I-4
I-4
I-4
I-2
I-2
I-2
I-2
I-2
I-2
I-2
I-2
I-2
I-4
I-4
I-4
I-4
I-4
tp1503
(I-4
I-4
I-4
I-4
I-4
I-2
I-2
I-2
I-2
I-2
I-2
I-2
I-2
I-2
I-4
I-4
I-4
I-4
I-4
tp1504
(I-4
I-4
I-4
I-4
I-4
I-4
I-4
I-4
I-4
I-4
I-4
I-4
I-4
I-4
I-4
I-4
I-4
I-4
I-4
tp1505
tp1506
(I4
I12
tp1507
I14
I19
tp1508
g280
tp1509
I0
s(g1121
g135
tp1510
I0
s(g1072
g59
tp1511
I0
s((((I-4
I-4
I-4
I-4
I-4
I-4
I-4
I-4
I-4
I-4
I-4
I-4
I-4
I-4
I-4
I-4
I-4
I-4
I-4
tp1512
(I-4
I-4
I-4
I-4
I-4
I-2
I-2
I-2
I-4
I1
I-4
I-2
I-2
I-2
I-4
I-4
I-4
I-4
I-4
tp1513
(I-4
I-4
I-4
I-4
I-4
I-2
I-2
I-2
I-4
I-4
I-4
I-2
I-2
I-2
I-4
I-4
I-4
I-4
I-4
tp1514
(I-4
I-4
I-4
I-4
I-4
I-2
I-2
I-2
I-2
I-2
I-2
I0
I-2
I-2
I-4
I-4
I-4
I-4
I-4
tp1515
(I-4
I-4
I-4
I-4
I-4
I-2
I-2
I-2
I-2
I-2
I-2
I-2
I-2
I-2
I-4
I-4
I-4
I-4
I-4
tp1516
(I-4
I-4
I-4
I-4
I-4
I-2
I-2
I-2
I-2
I-2
I-2
I-2
I-2
I-2
I-4
I-4
I-4
I-4
I-4
tp1517
(I-4
I-4
I-4
I-4
I-4
I-2
I-2
I-2
I-2
I-2
I-2
I-2
I-2
I-2
I-4
I-4
I-4
I-4
I-4
tp1518
(I-4
I-4
I-4
I-4
I-4
I-2
I-2
I-2
I-2
I-2
I-2
I-2
I-2
I-2
I-4
I-4
I-4
I-4
I-4
tp1519
(I-4
I-4
I-4
I-4
I-4
I-2
I-2
I-2
I-2
I-2
I-2
I-2
I-2
I-2
I-4
I-4
I-4
I-4
I-4
tp1520
(I-4
I-4
I-4
I-4
I-4
I-2
I-2
I-2
I-2
I-2
I-2
I-2
I-2
I-2
I-4
I-4
I-4
I-4
I-4
tp1521
(I-4
I-4
I-4
I-4
I-4
I-2
I-2
I-2
I-2
I-2
I-2
I-2
I-2
I-2
I-4
I-4
I-4
I-4
I-4
tp1522
(I-4
I-4
I-4
I-4
I-4
I-2
I-2
I-2
I-2
I-2
I-2
I-2
I-2
I-2
I-4
I-4
I-4
I-4
I-4
tp1523
(I-4
I-4
I-4
I-4
I-4
I-2
I-2
I-2
I-2
I-2
I-2
I-2
I-2
I-2
I-4
I-4
I-4
I-4
I-4
tp1524
(I-4
I-4
I-4
I-4
I-4
I-4
I-4
I-4
I-4
I-4
I-4
I-4
I-4
I-4
I-4
I-4
I-4
I-4
I-4
tp1525
tp1526
(I3
I11
tp1527
I14
I19
tp1528
g21
tp1529
I0
s(g1508
g481
tp1530
I0
s(g389
g78
tp1531
F0.025
s((((I-4
I-4
I-4
I-4
I-4
I-4
I-4
I-4
I-4
I-4
I-4
I-4
I-4
I-4
I-4
I-4
I-4
I-4
I-4
tp1532
(I-4
I-4
I-4
I-4
I-4
I-2
I-2
I-2
I-4
I1
I-4
I-2
I-2
I-2
I-4
I-4
I-4
I-4
I-4
tp1533
(I-4
I-4
I-4
I-4
I-4
I-2
I-2
I-2
I-4
I-4
I-4
I-2
I-2
I-2
I-4
I-4
I-4
I-4
I-4
tp1534
(I-4
I-4
I-4
I-4
I-4
I-2
I-2
I-2
I-2
I-2
I-2
I-2
I-2
I-2
I-4
I-4
I-4
I-4
I-4
tp1535
(I-4
I-4
I-4
I-4
I-4
I-2
I-2
I-2
I-2
I-2
I-2
I-2
I-2
I-2
I-4
I-4
I-4
I-4
I-4
tp1536
(I-4
I-4
I-4
I-4
I-4
I-2
I-2
I-2
I-2
I-2
I-2
I-2
I-2
I-2
I-4
I-4
I-4
I-4
I-4
tp1537
(I-4
I-4
I-4
I-4
I-4
I-2
I-2
I-2
I-2
I-2
I-2
I-2
I-2
I-2
I-4
I-4
I-4
I-4
I-4
tp1538
(I-4
I-4
I-4
I-4
I-4
I-2
I-2
I-2
I-2
I-2
I-2
I-2
I-2
I-2
I-4
I-4
I-4
I-4
I-4
tp1539
(I-4
I-4
I-4
I-4
I-4
I-2
I-2
I-2
I-2
I-2
I-2
I-2
I-2
I-2
I-4
I-4
I-4
I-4
I-4
tp1540
(I-4
I-4
I-4
I-4
I-4
I-2
I-2
I-2
I-2
I-2
I-2
I-2
I-2
I-2
I-4
I-4
I-4
I-4
I-4
tp1541
(I-4
I-4
I-4
I-4
I-4
I-2
I-2
I-2
I-2
I-2
I-2
I-2
I-2
I-2
I-4
I-4
I-4
I-4
I-4
tp1542
(I-4
I-4
I-4
I-4
I-4
I-2
I-2
I-2
I-2
I-2
I-2
I-2
I0
I-2
I-4
I-4
I-4
I-4
I-4
tp1543
(I-4
I-4
I-4
I-4
I-4
I-2
I-2
I-2
I-2
I-2
I-2
I-2
I-2
I-2
I-4
I-4
I-4
I-4
I-4
tp1544
(I-4
I-4
I-4
I-4
I-4
I-4
I-4
I-4
I-4
I-4
I-4
I-4
I-4
I-4
I-4
I-4
I-4
I-4
I-4
tp1545
tp1546
(I11
I12
tp1547
I14
I19
tp1548
g78
tp1549
F0.025
s(g1264
g40
tp1550
I0
s(g942
g59
tp1551
I0
s(g1548
g135
tp1552
I0
s(g1053
g280
tp1553
F0.009104139873324753
s(g803
g116
tp1554
F1.100978835856743
s(g1363
g59
tp1555
F0.0012500000000000002
s(g1548
g40
tp1556
I0
s(g1035
g135
tp1557
I0
s(g555
g40
tp1558
I0
s(g1528
g116
tp1559
I0
s(g1438
g21
tp1560
I0
s(g655
g21
tp1561
F0.007409716796875
s(g1438
g280
tp1562
I0
s(g461
g40
tp1563
F0.0
s(g479
g135
tp1564
F1.0997707072896246
s(g1017
g59
tp1565
I0
s(g1185
g59
tp1566
F0.0
s(g1320
g59
tp1567
I0
s(g153
g78
tp1568
I0
s(g134
g40
tp1569
I0
s(g847
g481
tp1570
F0.009179534378306441
s(g783
g59
tp1571
I0
s(g847
g280
tp1572
I0
s(g1465
g59
tp1573
I0
s(g1246
g59
tp1574
I0
s(g1528
g481
tp1575
I0
s(g1508
g21
tp1576
F0.00499647216796875
s(g1185
g135
tp1577
F0.9987930613735371
s(g1528
g280
tp1578
I0
s(g1465
g135
tp1579
F0.5
s(g352
g40
tp1580
F6.230479589843752e-05
s(g960
g135
tp1581
F1.04892578125
s(g537
g40
tp1582
I0
s(g1363
g78
tp1583
F0.0
s(g58
g78
tp1584
F0.0
s(g1053
g21
tp1585
I0
s(g96
g481
tp1586
F0.009869559191099109
s(g1399
g135
tp1587
I0
s(g901
g40
tp1588
I0
s(g1101
g280
tp1589
I0
s(g58
g135
tp1590
I0
s(g1139
g116
tp1591
I0
s(g942
g40
tp1592
I0
s(g1438
g481
tp1593
F0.09809731907556116
s(g923
g135
tp1594
I0
s(g171
g78
tp1595
I0
s(g942
g135
tp1596
F0.5
s(g1072
g135
tp1597
F1.1087752900004713
s(g189
g59
tp1598
F3.896484375000002e-06
s(g207
g59
tp1599
I0
s(g1167
g59
tp1600
I0
s(g171
g135
tp1601
F0.5
s(g1185
g78
tp1602
I0
s(g243
g59
tp1603
I0
s(g1320
g78
tp1604
F0.10875696658082176
s(g261
g78
tp1605
I0
s(g1205
g40
tp1606
I0
s(g883
g116
tp1607
I0
s(g821
g78
tp1608
I0
s(g847
g21
tp1609
I0
s(g316
g78
tp1610
I0
s(g1246
g40
tp1611
F0.0
s(g1227
g59
tp1612
F0.10382812500000002
s(g207
g40
tp1613
F0.009824750854798035
s(g1548
g59
tp1614
I0
s(g1246
g78
tp1615
I0
s(g1227
g40
tp1616
I0
s(g153
g135
tp1617
F0.5
s(g425
g78
tp1618
F0.025
s(g443
g78
tp1619
F0.0
s(g519
g21
tp1620
F0.10057386783138367
s(g261
g40
tp1621
F6.480468750000003e-05
s(g243
g135
tp1622
F0.5
s(g425
g40
tp1623
F0.0
s(g1508
g116
tp1624
F1.007572947137882
stp1625
Rp1626
.